

Microchip Technology PIC LITE Macro Assembler V1.38 build -256452561 
                                                                                               Tue Sep 27 20:12:58 2016

Microchip Technology Omniscient Code Generator v1.38 (Free mode) build 201607010351
     1                           	processor	16F18857
     2                           	opt	pw 120
     3                           	opt	lm
     4                           	psect	cinit,global,class=CODE,merge=1,delta=2
     5                           	psect	cstackCOMMON,global,class=COMMON,space=1,delta=1
     6                           	psect	maintext,global,class=CODE,merge=1,split=1,delta=2
     7                           	psect	text1,local,class=CODE,merge=1,delta=2
     8                           	psect	text2,local,class=CODE,merge=1,delta=2
     9                           	psect	text3,local,class=CODE,merge=1,delta=2
    10                           	psect	text4,local,class=CODE,merge=1,delta=2
    11                           	psect	text5,local,class=CODE,merge=1,delta=2
    12                           	psect	text6,local,class=CODE,merge=1,delta=2
    13                           	psect	intentry,global,class=CODE,delta=2
    14                           	psect	text8,local,class=CODE,merge=1,delta=2
    15                           	dabs	1,0x7E,2
    16  0000                     	;# 
    17  0001                     	;# 
    18  0002                     	;# 
    19  0003                     	;# 
    20  0004                     	;# 
    21  0005                     	;# 
    22  0006                     	;# 
    23  0007                     	;# 
    24  0008                     	;# 
    25  0009                     	;# 
    26  000A                     	;# 
    27  000B                     	;# 
    28  000C                     	;# 
    29  000D                     	;# 
    30  000E                     	;# 
    31  0010                     	;# 
    32  0011                     	;# 
    33  0012                     	;# 
    34  0013                     	;# 
    35  0016                     	;# 
    36  0017                     	;# 
    37  0018                     	;# 
    38  001C                     	;# 
    39  001C                     	;# 
    40  001D                     	;# 
    41  001D                     	;# 
    42  001E                     	;# 
    43  001F                     	;# 
    44  008C                     	;# 
    45  008C                     	;# 
    46  008D                     	;# 
    47  008E                     	;# 
    48  008E                     	;# 
    49  008F                     	;# 
    50  0090                     	;# 
    51  0090                     	;# 
    52  0091                     	;# 
    53  0093                     	;# 
    54  0094                     	;# 
    55  0095                     	;# 
    56  0096                     	;# 
    57  0097                     	;# 
    58  0098                     	;# 
    59  0099                     	;# 
    60  009A                     	;# 
    61  009B                     	;# 
    62  009C                     	;# 
    63  009D                     	;# 
    64  009E                     	;# 
    65  010C                     	;# 
    66  010D                     	;# 
    67  010E                     	;# 
    68  010E                     	;# 
    69  010F                     	;# 
    70  0110                     	;# 
    71  0110                     	;# 
    72  0111                     	;# 
    73  0112                     	;# 
    74  0112                     	;# 
    75  0113                     	;# 
    76  0114                     	;# 
    77  0114                     	;# 
    78  0115                     	;# 
    79  0116                     	;# 
    80  0116                     	;# 
    81  0117                     	;# 
    82  0119                     	;# 
    83  0119                     	;# 
    84  0119                     	;# 
    85  011A                     	;# 
    86  011A                     	;# 
    87  011A                     	;# 
    88  011B                     	;# 
    89  011B                     	;# 
    90  011B                     	;# 
    91  011B                     	;# 
    92  011B                     	;# 
    93  011C                     	;# 
    94  011C                     	;# 
    95  011C                     	;# 
    96  011D                     	;# 
    97  011D                     	;# 
    98  011D                     	;# 
    99  011E                     	;# 
   100  011E                     	;# 
   101  011E                     	;# 
   102  011F                     	;# 
   103  011F                     	;# 
   104  011F                     	;# 
   105  011F                     	;# 
   106  011F                     	;# 
   107  018C                     	;# 
   108  018D                     	;# 
   109  018E                     	;# 
   110  018F                     	;# 
   111  0190                     	;# 
   112  0191                     	;# 
   113  0192                     	;# 
   114  0196                     	;# 
   115  0197                     	;# 
   116  0198                     	;# 
   117  0199                     	;# 
   118  019A                     	;# 
   119  019B                     	;# 
   120  019C                     	;# 
   121  020C                     	;# 
   122  020D                     	;# 
   123  020E                     	;# 
   124  020F                     	;# 
   125  020F                     	;# 
   126  0210                     	;# 
   127  0210                     	;# 
   128  0211                     	;# 
   129  0211                     	;# 
   130  0212                     	;# 
   131  0213                     	;# 
   132  0214                     	;# 
   133  0215                     	;# 
   134  0215                     	;# 
   135  0216                     	;# 
   136  0216                     	;# 
   137  0217                     	;# 
   138  0217                     	;# 
   139  0218                     	;# 
   140  0219                     	;# 
   141  021A                     	;# 
   142  021B                     	;# 
   143  021B                     	;# 
   144  021C                     	;# 
   145  021C                     	;# 
   146  021D                     	;# 
   147  021D                     	;# 
   148  021E                     	;# 
   149  021F                     	;# 
   150  028C                     	;# 
   151  028C                     	;# 
   152  028D                     	;# 
   153  028D                     	;# 
   154  028E                     	;# 
   155  028F                     	;# 
   156  0290                     	;# 
   157  0290                     	;# 
   158  0291                     	;# 
   159  0292                     	;# 
   160  0292                     	;# 
   161  0293                     	;# 
   162  0293                     	;# 
   163  0294                     	;# 
   164  0295                     	;# 
   165  0296                     	;# 
   166  0296                     	;# 
   167  0297                     	;# 
   168  0298                     	;# 
   169  0298                     	;# 
   170  0299                     	;# 
   171  0299                     	;# 
   172  029A                     	;# 
   173  029B                     	;# 
   174  029C                     	;# 
   175  029C                     	;# 
   176  029D                     	;# 
   177  030C                     	;# 
   178  030C                     	;# 
   179  030D                     	;# 
   180  030E                     	;# 
   181  030F                     	;# 
   182  0310                     	;# 
   183  0310                     	;# 
   184  0311                     	;# 
   185  0312                     	;# 
   186  0313                     	;# 
   187  0314                     	;# 
   188  0314                     	;# 
   189  0315                     	;# 
   190  0316                     	;# 
   191  0317                     	;# 
   192  0318                     	;# 
   193  0318                     	;# 
   194  0319                     	;# 
   195  031A                     	;# 
   196  031B                     	;# 
   197  031C                     	;# 
   198  031C                     	;# 
   199  031D                     	;# 
   200  031E                     	;# 
   201  031F                     	;# 
   202  038C                     	;# 
   203  038D                     	;# 
   204  038E                     	;# 
   205  0390                     	;# 
   206  0391                     	;# 
   207  0392                     	;# 
   208  040C                     	;# 
   209  040D                     	;# 
   210  040E                     	;# 
   211  040F                     	;# 
   212  0410                     	;# 
   213  0411                     	;# 
   214  0416                     	;# 
   215  0416                     	;# 
   216  0417                     	;# 
   217  0418                     	;# 
   218  0418                     	;# 
   219  0419                     	;# 
   220  041A                     	;# 
   221  041A                     	;# 
   222  041B                     	;# 
   223  041C                     	;# 
   224  041C                     	;# 
   225  041D                     	;# 
   226  041E                     	;# 
   227  041F                     	;# 
   228  048C                     	;# 
   229  048C                     	;# 
   230  048D                     	;# 
   231  048E                     	;# 
   232  048F                     	;# 
   233  048F                     	;# 
   234  0490                     	;# 
   235  0491                     	;# 
   236  0492                     	;# 
   237  0492                     	;# 
   238  0493                     	;# 
   239  0494                     	;# 
   240  0495                     	;# 
   241  0495                     	;# 
   242  0496                     	;# 
   243  0497                     	;# 
   244  0498                     	;# 
   245  0499                     	;# 
   246  049A                     	;# 
   247  049B                     	;# 
   248  049C                     	;# 
   249  049D                     	;# 
   250  050C                     	;# 
   251  050C                     	;# 
   252  050D                     	;# 
   253  050E                     	;# 
   254  050F                     	;# 
   255  050F                     	;# 
   256  0510                     	;# 
   257  0511                     	;# 
   258  0512                     	;# 
   259  0512                     	;# 
   260  0513                     	;# 
   261  0514                     	;# 
   262  0515                     	;# 
   263  0515                     	;# 
   264  0516                     	;# 
   265  0517                     	;# 
   266  0518                     	;# 
   267  0519                     	;# 
   268  051A                     	;# 
   269  051B                     	;# 
   270  051C                     	;# 
   271  051D                     	;# 
   272  058C                     	;# 
   273  058C                     	;# 
   274  058D                     	;# 
   275  058E                     	;# 
   276  058F                     	;# 
   277  058F                     	;# 
   278  0590                     	;# 
   279  0591                     	;# 
   280  0592                     	;# 
   281  0593                     	;# 
   282  060C                     	;# 
   283  060D                     	;# 
   284  060E                     	;# 
   285  060F                     	;# 
   286  0610                     	;# 
   287  0611                     	;# 
   288  0612                     	;# 
   289  0613                     	;# 
   290  0614                     	;# 
   291  0616                     	;# 
   292  0617                     	;# 
   293  0618                     	;# 
   294  0619                     	;# 
   295  061A                     	;# 
   296  061B                     	;# 
   297  061C                     	;# 
   298  061D                     	;# 
   299  061E                     	;# 
   300  068C                     	;# 
   301  068D                     	;# 
   302  068E                     	;# 
   303  068F                     	;# 
   304  0690                     	;# 
   305  0691                     	;# 
   306  0692                     	;# 
   307  0693                     	;# 
   308  0694                     	;# 
   309  070C                     	;# 
   310  070D                     	;# 
   311  070E                     	;# 
   312  070F                     	;# 
   313  0710                     	;# 
   314  0711                     	;# 
   315  0712                     	;# 
   316  0713                     	;# 
   317  0714                     	;# 
   318  0716                     	;# 
   319  0717                     	;# 
   320  0718                     	;# 
   321  0719                     	;# 
   322  071A                     	;# 
   323  071B                     	;# 
   324  071C                     	;# 
   325  071D                     	;# 
   326  071E                     	;# 
   327  0796                     	;# 
   328  0797                     	;# 
   329  0798                     	;# 
   330  0799                     	;# 
   331  079A                     	;# 
   332  079B                     	;# 
   333  080C                     	;# 
   334  080D                     	;# 
   335  080E                     	;# 
   336  080F                     	;# 
   337  0810                     	;# 
   338  0811                     	;# 
   339  0812                     	;# 
   340  0813                     	;# 
   341  0814                     	;# 
   342  081A                     	;# 
   343  081B                     	;# 
   344  081C                     	;# 
   345  081D                     	;# 
   346  081E                     	;# 
   347  081F                     	;# 
   348  088C                     	;# 
   349  088D                     	;# 
   350  088E                     	;# 
   351  088F                     	;# 
   352  0890                     	;# 
   353  0891                     	;# 
   354  0892                     	;# 
   355  0893                     	;# 
   356  0895                     	;# 
   357  0896                     	;# 
   358  0897                     	;# 
   359  0898                     	;# 
   360  0899                     	;# 
   361  089A                     	;# 
   362  089B                     	;# 
   363  090C                     	;# 
   364  090E                     	;# 
   365  090F                     	;# 
   366  091F                     	;# 
   367  098F                     	;# 
   368  098F                     	;# 
   369  0990                     	;# 
   370  0991                     	;# 
   371  0992                     	;# 
   372  0993                     	;# 
   373  0994                     	;# 
   374  0995                     	;# 
   375  0996                     	;# 
   376  0997                     	;# 
   377  1E0F                     	;# 
   378  1E10                     	;# 
   379  1E11                     	;# 
   380  1E12                     	;# 
   381  1E13                     	;# 
   382  1E14                     	;# 
   383  1E15                     	;# 
   384  1E16                     	;# 
   385  1E17                     	;# 
   386  1E18                     	;# 
   387  1E19                     	;# 
   388  1E1A                     	;# 
   389  1E1B                     	;# 
   390  1E1C                     	;# 
   391  1E1D                     	;# 
   392  1E1E                     	;# 
   393  1E1F                     	;# 
   394  1E20                     	;# 
   395  1E21                     	;# 
   396  1E22                     	;# 
   397  1E23                     	;# 
   398  1E24                     	;# 
   399  1E25                     	;# 
   400  1E26                     	;# 
   401  1E27                     	;# 
   402  1E28                     	;# 
   403  1E29                     	;# 
   404  1E2A                     	;# 
   405  1E2B                     	;# 
   406  1E2C                     	;# 
   407  1E2D                     	;# 
   408  1E2E                     	;# 
   409  1E2F                     	;# 
   410  1E30                     	;# 
   411  1E31                     	;# 
   412  1E32                     	;# 
   413  1E33                     	;# 
   414  1E34                     	;# 
   415  1E35                     	;# 
   416  1E36                     	;# 
   417  1E37                     	;# 
   418  1E8F                     	;# 
   419  1E90                     	;# 
   420  1E91                     	;# 
   421  1E92                     	;# 
   422  1E93                     	;# 
   423  1E94                     	;# 
   424  1E95                     	;# 
   425  1E96                     	;# 
   426  1E97                     	;# 
   427  1E9C                     	;# 
   428  1E9D                     	;# 
   429  1E9E                     	;# 
   430  1EA1                     	;# 
   431  1EA2                     	;# 
   432  1EA3                     	;# 
   433  1EA4                     	;# 
   434  1EA5                     	;# 
   435  1EA9                     	;# 
   436  1EAA                     	;# 
   437  1EAB                     	;# 
   438  1EAC                     	;# 
   439  1EB1                     	;# 
   440  1EB2                     	;# 
   441  1EB3                     	;# 
   442  1EB8                     	;# 
   443  1EB9                     	;# 
   444  1EBA                     	;# 
   445  1EBB                     	;# 
   446  1EBC                     	;# 
   447  1EBD                     	;# 
   448  1EBE                     	;# 
   449  1EC3                     	;# 
   450  1EC5                     	;# 
   451  1EC6                     	;# 
   452  1EC7                     	;# 
   453  1EC8                     	;# 
   454  1EC9                     	;# 
   455  1ECA                     	;# 
   456  1ECB                     	;# 
   457  1ECC                     	;# 
   458  1F10                     	;# 
   459  1F11                     	;# 
   460  1F12                     	;# 
   461  1F13                     	;# 
   462  1F14                     	;# 
   463  1F15                     	;# 
   464  1F16                     	;# 
   465  1F17                     	;# 
   466  1F18                     	;# 
   467  1F19                     	;# 
   468  1F1A                     	;# 
   469  1F1B                     	;# 
   470  1F1C                     	;# 
   471  1F1D                     	;# 
   472  1F1E                     	;# 
   473  1F1F                     	;# 
   474  1F20                     	;# 
   475  1F21                     	;# 
   476  1F22                     	;# 
   477  1F23                     	;# 
   478  1F24                     	;# 
   479  1F25                     	;# 
   480  1F26                     	;# 
   481  1F27                     	;# 
   482  1F38                     	;# 
   483  1F39                     	;# 
   484  1F3A                     	;# 
   485  1F3B                     	;# 
   486  1F3C                     	;# 
   487  1F3D                     	;# 
   488  1F3E                     	;# 
   489  1F3F                     	;# 
   490  1F40                     	;# 
   491  1F41                     	;# 
   492  1F43                     	;# 
   493  1F44                     	;# 
   494  1F45                     	;# 
   495  1F46                     	;# 
   496  1F47                     	;# 
   497  1F48                     	;# 
   498  1F49                     	;# 
   499  1F4A                     	;# 
   500  1F4B                     	;# 
   501  1F4C                     	;# 
   502  1F4E                     	;# 
   503  1F4F                     	;# 
   504  1F50                     	;# 
   505  1F51                     	;# 
   506  1F52                     	;# 
   507  1F53                     	;# 
   508  1F54                     	;# 
   509  1F55                     	;# 
   510  1F56                     	;# 
   511  1F57                     	;# 
   512  1F65                     	;# 
   513  1F68                     	;# 
   514  1F69                     	;# 
   515  1F6A                     	;# 
   516  1F6B                     	;# 
   517  1FE4                     	;# 
   518  1FE5                     	;# 
   519  1FE6                     	;# 
   520  1FE7                     	;# 
   521  1FE8                     	;# 
   522  1FE9                     	;# 
   523  1FEA                     	;# 
   524  1FEB                     	;# 
   525  1FED                     	;# 
   526  1FEE                     	;# 
   527  1FEF                     	;# 
   528  0000                     	;# 
   529  0001                     	;# 
   530  0002                     	;# 
   531  0003                     	;# 
   532  0004                     	;# 
   533  0005                     	;# 
   534  0006                     	;# 
   535  0007                     	;# 
   536  0008                     	;# 
   537  0009                     	;# 
   538  000A                     	;# 
   539  000B                     	;# 
   540  000C                     	;# 
   541  000D                     	;# 
   542  000E                     	;# 
   543  0010                     	;# 
   544  0011                     	;# 
   545  0012                     	;# 
   546  0013                     	;# 
   547  0016                     	;# 
   548  0017                     	;# 
   549  0018                     	;# 
   550  001C                     	;# 
   551  001C                     	;# 
   552  001D                     	;# 
   553  001D                     	;# 
   554  001E                     	;# 
   555  001F                     	;# 
   556  008C                     	;# 
   557  008C                     	;# 
   558  008D                     	;# 
   559  008E                     	;# 
   560  008E                     	;# 
   561  008F                     	;# 
   562  0090                     	;# 
   563  0090                     	;# 
   564  0091                     	;# 
   565  0093                     	;# 
   566  0094                     	;# 
   567  0095                     	;# 
   568  0096                     	;# 
   569  0097                     	;# 
   570  0098                     	;# 
   571  0099                     	;# 
   572  009A                     	;# 
   573  009B                     	;# 
   574  009C                     	;# 
   575  009D                     	;# 
   576  009E                     	;# 
   577  010C                     	;# 
   578  010D                     	;# 
   579  010E                     	;# 
   580  010E                     	;# 
   581  010F                     	;# 
   582  0110                     	;# 
   583  0110                     	;# 
   584  0111                     	;# 
   585  0112                     	;# 
   586  0112                     	;# 
   587  0113                     	;# 
   588  0114                     	;# 
   589  0114                     	;# 
   590  0115                     	;# 
   591  0116                     	;# 
   592  0116                     	;# 
   593  0117                     	;# 
   594  0119                     	;# 
   595  0119                     	;# 
   596  0119                     	;# 
   597  011A                     	;# 
   598  011A                     	;# 
   599  011A                     	;# 
   600  011B                     	;# 
   601  011B                     	;# 
   602  011B                     	;# 
   603  011B                     	;# 
   604  011B                     	;# 
   605  011C                     	;# 
   606  011C                     	;# 
   607  011C                     	;# 
   608  011D                     	;# 
   609  011D                     	;# 
   610  011D                     	;# 
   611  011E                     	;# 
   612  011E                     	;# 
   613  011E                     	;# 
   614  011F                     	;# 
   615  011F                     	;# 
   616  011F                     	;# 
   617  011F                     	;# 
   618  011F                     	;# 
   619  018C                     	;# 
   620  018D                     	;# 
   621  018E                     	;# 
   622  018F                     	;# 
   623  0190                     	;# 
   624  0191                     	;# 
   625  0192                     	;# 
   626  0196                     	;# 
   627  0197                     	;# 
   628  0198                     	;# 
   629  0199                     	;# 
   630  019A                     	;# 
   631  019B                     	;# 
   632  019C                     	;# 
   633  020C                     	;# 
   634  020D                     	;# 
   635  020E                     	;# 
   636  020F                     	;# 
   637  020F                     	;# 
   638  0210                     	;# 
   639  0210                     	;# 
   640  0211                     	;# 
   641  0211                     	;# 
   642  0212                     	;# 
   643  0213                     	;# 
   644  0214                     	;# 
   645  0215                     	;# 
   646  0215                     	;# 
   647  0216                     	;# 
   648  0216                     	;# 
   649  0217                     	;# 
   650  0217                     	;# 
   651  0218                     	;# 
   652  0219                     	;# 
   653  021A                     	;# 
   654  021B                     	;# 
   655  021B                     	;# 
   656  021C                     	;# 
   657  021C                     	;# 
   658  021D                     	;# 
   659  021D                     	;# 
   660  021E                     	;# 
   661  021F                     	;# 
   662  028C                     	;# 
   663  028C                     	;# 
   664  028D                     	;# 
   665  028D                     	;# 
   666  028E                     	;# 
   667  028F                     	;# 
   668  0290                     	;# 
   669  0290                     	;# 
   670  0291                     	;# 
   671  0292                     	;# 
   672  0292                     	;# 
   673  0293                     	;# 
   674  0293                     	;# 
   675  0294                     	;# 
   676  0295                     	;# 
   677  0296                     	;# 
   678  0296                     	;# 
   679  0297                     	;# 
   680  0298                     	;# 
   681  0298                     	;# 
   682  0299                     	;# 
   683  0299                     	;# 
   684  029A                     	;# 
   685  029B                     	;# 
   686  029C                     	;# 
   687  029C                     	;# 
   688  029D                     	;# 
   689  030C                     	;# 
   690  030C                     	;# 
   691  030D                     	;# 
   692  030E                     	;# 
   693  030F                     	;# 
   694  0310                     	;# 
   695  0310                     	;# 
   696  0311                     	;# 
   697  0312                     	;# 
   698  0313                     	;# 
   699  0314                     	;# 
   700  0314                     	;# 
   701  0315                     	;# 
   702  0316                     	;# 
   703  0317                     	;# 
   704  0318                     	;# 
   705  0318                     	;# 
   706  0319                     	;# 
   707  031A                     	;# 
   708  031B                     	;# 
   709  031C                     	;# 
   710  031C                     	;# 
   711  031D                     	;# 
   712  031E                     	;# 
   713  031F                     	;# 
   714  038C                     	;# 
   715  038D                     	;# 
   716  038E                     	;# 
   717  0390                     	;# 
   718  0391                     	;# 
   719  0392                     	;# 
   720  040C                     	;# 
   721  040D                     	;# 
   722  040E                     	;# 
   723  040F                     	;# 
   724  0410                     	;# 
   725  0411                     	;# 
   726  0416                     	;# 
   727  0416                     	;# 
   728  0417                     	;# 
   729  0418                     	;# 
   730  0418                     	;# 
   731  0419                     	;# 
   732  041A                     	;# 
   733  041A                     	;# 
   734  041B                     	;# 
   735  041C                     	;# 
   736  041C                     	;# 
   737  041D                     	;# 
   738  041E                     	;# 
   739  041F                     	;# 
   740  048C                     	;# 
   741  048C                     	;# 
   742  048D                     	;# 
   743  048E                     	;# 
   744  048F                     	;# 
   745  048F                     	;# 
   746  0490                     	;# 
   747  0491                     	;# 
   748  0492                     	;# 
   749  0492                     	;# 
   750  0493                     	;# 
   751  0494                     	;# 
   752  0495                     	;# 
   753  0495                     	;# 
   754  0496                     	;# 
   755  0497                     	;# 
   756  0498                     	;# 
   757  0499                     	;# 
   758  049A                     	;# 
   759  049B                     	;# 
   760  049C                     	;# 
   761  049D                     	;# 
   762  050C                     	;# 
   763  050C                     	;# 
   764  050D                     	;# 
   765  050E                     	;# 
   766  050F                     	;# 
   767  050F                     	;# 
   768  0510                     	;# 
   769  0511                     	;# 
   770  0512                     	;# 
   771  0512                     	;# 
   772  0513                     	;# 
   773  0514                     	;# 
   774  0515                     	;# 
   775  0515                     	;# 
   776  0516                     	;# 
   777  0517                     	;# 
   778  0518                     	;# 
   779  0519                     	;# 
   780  051A                     	;# 
   781  051B                     	;# 
   782  051C                     	;# 
   783  051D                     	;# 
   784  058C                     	;# 
   785  058C                     	;# 
   786  058D                     	;# 
   787  058E                     	;# 
   788  058F                     	;# 
   789  058F                     	;# 
   790  0590                     	;# 
   791  0591                     	;# 
   792  0592                     	;# 
   793  0593                     	;# 
   794  060C                     	;# 
   795  060D                     	;# 
   796  060E                     	;# 
   797  060F                     	;# 
   798  0610                     	;# 
   799  0611                     	;# 
   800  0612                     	;# 
   801  0613                     	;# 
   802  0614                     	;# 
   803  0616                     	;# 
   804  0617                     	;# 
   805  0618                     	;# 
   806  0619                     	;# 
   807  061A                     	;# 
   808  061B                     	;# 
   809  061C                     	;# 
   810  061D                     	;# 
   811  061E                     	;# 
   812  068C                     	;# 
   813  068D                     	;# 
   814  068E                     	;# 
   815  068F                     	;# 
   816  0690                     	;# 
   817  0691                     	;# 
   818  0692                     	;# 
   819  0693                     	;# 
   820  0694                     	;# 
   821  070C                     	;# 
   822  070D                     	;# 
   823  070E                     	;# 
   824  070F                     	;# 
   825  0710                     	;# 
   826  0711                     	;# 
   827  0712                     	;# 
   828  0713                     	;# 
   829  0714                     	;# 
   830  0716                     	;# 
   831  0717                     	;# 
   832  0718                     	;# 
   833  0719                     	;# 
   834  071A                     	;# 
   835  071B                     	;# 
   836  071C                     	;# 
   837  071D                     	;# 
   838  071E                     	;# 
   839  0796                     	;# 
   840  0797                     	;# 
   841  0798                     	;# 
   842  0799                     	;# 
   843  079A                     	;# 
   844  079B                     	;# 
   845  080C                     	;# 
   846  080D                     	;# 
   847  080E                     	;# 
   848  080F                     	;# 
   849  0810                     	;# 
   850  0811                     	;# 
   851  0812                     	;# 
   852  0813                     	;# 
   853  0814                     	;# 
   854  081A                     	;# 
   855  081B                     	;# 
   856  081C                     	;# 
   857  081D                     	;# 
   858  081E                     	;# 
   859  081F                     	;# 
   860  088C                     	;# 
   861  088D                     	;# 
   862  088E                     	;# 
   863  088F                     	;# 
   864  0890                     	;# 
   865  0891                     	;# 
   866  0892                     	;# 
   867  0893                     	;# 
   868  0895                     	;# 
   869  0896                     	;# 
   870  0897                     	;# 
   871  0898                     	;# 
   872  0899                     	;# 
   873  089A                     	;# 
   874  089B                     	;# 
   875  090C                     	;# 
   876  090E                     	;# 
   877  090F                     	;# 
   878  091F                     	;# 
   879  098F                     	;# 
   880  098F                     	;# 
   881  0990                     	;# 
   882  0991                     	;# 
   883  0992                     	;# 
   884  0993                     	;# 
   885  0994                     	;# 
   886  0995                     	;# 
   887  0996                     	;# 
   888  0997                     	;# 
   889  1E0F                     	;# 
   890  1E10                     	;# 
   891  1E11                     	;# 
   892  1E12                     	;# 
   893  1E13                     	;# 
   894  1E14                     	;# 
   895  1E15                     	;# 
   896  1E16                     	;# 
   897  1E17                     	;# 
   898  1E18                     	;# 
   899  1E19                     	;# 
   900  1E1A                     	;# 
   901  1E1B                     	;# 
   902  1E1C                     	;# 
   903  1E1D                     	;# 
   904  1E1E                     	;# 
   905  1E1F                     	;# 
   906  1E20                     	;# 
   907  1E21                     	;# 
   908  1E22                     	;# 
   909  1E23                     	;# 
   910  1E24                     	;# 
   911  1E25                     	;# 
   912  1E26                     	;# 
   913  1E27                     	;# 
   914  1E28                     	;# 
   915  1E29                     	;# 
   916  1E2A                     	;# 
   917  1E2B                     	;# 
   918  1E2C                     	;# 
   919  1E2D                     	;# 
   920  1E2E                     	;# 
   921  1E2F                     	;# 
   922  1E30                     	;# 
   923  1E31                     	;# 
   924  1E32                     	;# 
   925  1E33                     	;# 
   926  1E34                     	;# 
   927  1E35                     	;# 
   928  1E36                     	;# 
   929  1E37                     	;# 
   930  1E8F                     	;# 
   931  1E90                     	;# 
   932  1E91                     	;# 
   933  1E92                     	;# 
   934  1E93                     	;# 
   935  1E94                     	;# 
   936  1E95                     	;# 
   937  1E96                     	;# 
   938  1E97                     	;# 
   939  1E9C                     	;# 
   940  1E9D                     	;# 
   941  1E9E                     	;# 
   942  1EA1                     	;# 
   943  1EA2                     	;# 
   944  1EA3                     	;# 
   945  1EA4                     	;# 
   946  1EA5                     	;# 
   947  1EA9                     	;# 
   948  1EAA                     	;# 
   949  1EAB                     	;# 
   950  1EAC                     	;# 
   951  1EB1                     	;# 
   952  1EB2                     	;# 
   953  1EB3                     	;# 
   954  1EB8                     	;# 
   955  1EB9                     	;# 
   956  1EBA                     	;# 
   957  1EBB                     	;# 
   958  1EBC                     	;# 
   959  1EBD                     	;# 
   960  1EBE                     	;# 
   961  1EC3                     	;# 
   962  1EC5                     	;# 
   963  1EC6                     	;# 
   964  1EC7                     	;# 
   965  1EC8                     	;# 
   966  1EC9                     	;# 
   967  1ECA                     	;# 
   968  1ECB                     	;# 
   969  1ECC                     	;# 
   970  1F10                     	;# 
   971  1F11                     	;# 
   972  1F12                     	;# 
   973  1F13                     	;# 
   974  1F14                     	;# 
   975  1F15                     	;# 
   976  1F16                     	;# 
   977  1F17                     	;# 
   978  1F18                     	;# 
   979  1F19                     	;# 
   980  1F1A                     	;# 
   981  1F1B                     	;# 
   982  1F1C                     	;# 
   983  1F1D                     	;# 
   984  1F1E                     	;# 
   985  1F1F                     	;# 
   986  1F20                     	;# 
   987  1F21                     	;# 
   988  1F22                     	;# 
   989  1F23                     	;# 
   990  1F24                     	;# 
   991  1F25                     	;# 
   992  1F26                     	;# 
   993  1F27                     	;# 
   994  1F38                     	;# 
   995  1F39                     	;# 
   996  1F3A                     	;# 
   997  1F3B                     	;# 
   998  1F3C                     	;# 
   999  1F3D                     	;# 
  1000  1F3E                     	;# 
  1001  1F3F                     	;# 
  1002  1F40                     	;# 
  1003  1F41                     	;# 
  1004  1F43                     	;# 
  1005  1F44                     	;# 
  1006  1F45                     	;# 
  1007  1F46                     	;# 
  1008  1F47                     	;# 
  1009  1F48                     	;# 
  1010  1F49                     	;# 
  1011  1F4A                     	;# 
  1012  1F4B                     	;# 
  1013  1F4C                     	;# 
  1014  1F4E                     	;# 
  1015  1F4F                     	;# 
  1016  1F50                     	;# 
  1017  1F51                     	;# 
  1018  1F52                     	;# 
  1019  1F53                     	;# 
  1020  1F54                     	;# 
  1021  1F55                     	;# 
  1022  1F56                     	;# 
  1023  1F57                     	;# 
  1024  1F65                     	;# 
  1025  1F68                     	;# 
  1026  1F69                     	;# 
  1027  1F6A                     	;# 
  1028  1F6B                     	;# 
  1029  1FE4                     	;# 
  1030  1FE5                     	;# 
  1031  1FE6                     	;# 
  1032  1FE7                     	;# 
  1033  1FE8                     	;# 
  1034  1FE9                     	;# 
  1035  1FEA                     	;# 
  1036  1FEB                     	;# 
  1037  1FED                     	;# 
  1038  1FEE                     	;# 
  1039  1FEF                     	;# 
  1040  0000                     	;# 
  1041  0001                     	;# 
  1042  0002                     	;# 
  1043  0003                     	;# 
  1044  0004                     	;# 
  1045  0005                     	;# 
  1046  0006                     	;# 
  1047  0007                     	;# 
  1048  0008                     	;# 
  1049  0009                     	;# 
  1050  000A                     	;# 
  1051  000B                     	;# 
  1052  000C                     	;# 
  1053  000D                     	;# 
  1054  000E                     	;# 
  1055  0010                     	;# 
  1056  0011                     	;# 
  1057  0012                     	;# 
  1058  0013                     	;# 
  1059  0016                     	;# 
  1060  0017                     	;# 
  1061  0018                     	;# 
  1062  001C                     	;# 
  1063  001C                     	;# 
  1064  001D                     	;# 
  1065  001D                     	;# 
  1066  001E                     	;# 
  1067  001F                     	;# 
  1068  008C                     	;# 
  1069  008C                     	;# 
  1070  008D                     	;# 
  1071  008E                     	;# 
  1072  008E                     	;# 
  1073  008F                     	;# 
  1074  0090                     	;# 
  1075  0090                     	;# 
  1076  0091                     	;# 
  1077  0093                     	;# 
  1078  0094                     	;# 
  1079  0095                     	;# 
  1080  0096                     	;# 
  1081  0097                     	;# 
  1082  0098                     	;# 
  1083  0099                     	;# 
  1084  009A                     	;# 
  1085  009B                     	;# 
  1086  009C                     	;# 
  1087  009D                     	;# 
  1088  009E                     	;# 
  1089  010C                     	;# 
  1090  010D                     	;# 
  1091  010E                     	;# 
  1092  010E                     	;# 
  1093  010F                     	;# 
  1094  0110                     	;# 
  1095  0110                     	;# 
  1096  0111                     	;# 
  1097  0112                     	;# 
  1098  0112                     	;# 
  1099  0113                     	;# 
  1100  0114                     	;# 
  1101  0114                     	;# 
  1102  0115                     	;# 
  1103  0116                     	;# 
  1104  0116                     	;# 
  1105  0117                     	;# 
  1106  0119                     	;# 
  1107  0119                     	;# 
  1108  0119                     	;# 
  1109  011A                     	;# 
  1110  011A                     	;# 
  1111  011A                     	;# 
  1112  011B                     	;# 
  1113  011B                     	;# 
  1114  011B                     	;# 
  1115  011B                     	;# 
  1116  011B                     	;# 
  1117  011C                     	;# 
  1118  011C                     	;# 
  1119  011C                     	;# 
  1120  011D                     	;# 
  1121  011D                     	;# 
  1122  011D                     	;# 
  1123  011E                     	;# 
  1124  011E                     	;# 
  1125  011E                     	;# 
  1126  011F                     	;# 
  1127  011F                     	;# 
  1128  011F                     	;# 
  1129  011F                     	;# 
  1130  011F                     	;# 
  1131  018C                     	;# 
  1132  018D                     	;# 
  1133  018E                     	;# 
  1134  018F                     	;# 
  1135  0190                     	;# 
  1136  0191                     	;# 
  1137  0192                     	;# 
  1138  0196                     	;# 
  1139  0197                     	;# 
  1140  0198                     	;# 
  1141  0199                     	;# 
  1142  019A                     	;# 
  1143  019B                     	;# 
  1144  019C                     	;# 
  1145  020C                     	;# 
  1146  020D                     	;# 
  1147  020E                     	;# 
  1148  020F                     	;# 
  1149  020F                     	;# 
  1150  0210                     	;# 
  1151  0210                     	;# 
  1152  0211                     	;# 
  1153  0211                     	;# 
  1154  0212                     	;# 
  1155  0213                     	;# 
  1156  0214                     	;# 
  1157  0215                     	;# 
  1158  0215                     	;# 
  1159  0216                     	;# 
  1160  0216                     	;# 
  1161  0217                     	;# 
  1162  0217                     	;# 
  1163  0218                     	;# 
  1164  0219                     	;# 
  1165  021A                     	;# 
  1166  021B                     	;# 
  1167  021B                     	;# 
  1168  021C                     	;# 
  1169  021C                     	;# 
  1170  021D                     	;# 
  1171  021D                     	;# 
  1172  021E                     	;# 
  1173  021F                     	;# 
  1174  028C                     	;# 
  1175  028C                     	;# 
  1176  028D                     	;# 
  1177  028D                     	;# 
  1178  028E                     	;# 
  1179  028F                     	;# 
  1180  0290                     	;# 
  1181  0290                     	;# 
  1182  0291                     	;# 
  1183  0292                     	;# 
  1184  0292                     	;# 
  1185  0293                     	;# 
  1186  0293                     	;# 
  1187  0294                     	;# 
  1188  0295                     	;# 
  1189  0296                     	;# 
  1190  0296                     	;# 
  1191  0297                     	;# 
  1192  0298                     	;# 
  1193  0298                     	;# 
  1194  0299                     	;# 
  1195  0299                     	;# 
  1196  029A                     	;# 
  1197  029B                     	;# 
  1198  029C                     	;# 
  1199  029C                     	;# 
  1200  029D                     	;# 
  1201  030C                     	;# 
  1202  030C                     	;# 
  1203  030D                     	;# 
  1204  030E                     	;# 
  1205  030F                     	;# 
  1206  0310                     	;# 
  1207  0310                     	;# 
  1208  0311                     	;# 
  1209  0312                     	;# 
  1210  0313                     	;# 
  1211  0314                     	;# 
  1212  0314                     	;# 
  1213  0315                     	;# 
  1214  0316                     	;# 
  1215  0317                     	;# 
  1216  0318                     	;# 
  1217  0318                     	;# 
  1218  0319                     	;# 
  1219  031A                     	;# 
  1220  031B                     	;# 
  1221  031C                     	;# 
  1222  031C                     	;# 
  1223  031D                     	;# 
  1224  031E                     	;# 
  1225  031F                     	;# 
  1226  038C                     	;# 
  1227  038D                     	;# 
  1228  038E                     	;# 
  1229  0390                     	;# 
  1230  0391                     	;# 
  1231  0392                     	;# 
  1232  040C                     	;# 
  1233  040D                     	;# 
  1234  040E                     	;# 
  1235  040F                     	;# 
  1236  0410                     	;# 
  1237  0411                     	;# 
  1238  0416                     	;# 
  1239  0416                     	;# 
  1240  0417                     	;# 
  1241  0418                     	;# 
  1242  0418                     	;# 
  1243  0419                     	;# 
  1244  041A                     	;# 
  1245  041A                     	;# 
  1246  041B                     	;# 
  1247  041C                     	;# 
  1248  041C                     	;# 
  1249  041D                     	;# 
  1250  041E                     	;# 
  1251  041F                     	;# 
  1252  048C                     	;# 
  1253  048C                     	;# 
  1254  048D                     	;# 
  1255  048E                     	;# 
  1256  048F                     	;# 
  1257  048F                     	;# 
  1258  0490                     	;# 
  1259  0491                     	;# 
  1260  0492                     	;# 
  1261  0492                     	;# 
  1262  0493                     	;# 
  1263  0494                     	;# 
  1264  0495                     	;# 
  1265  0495                     	;# 
  1266  0496                     	;# 
  1267  0497                     	;# 
  1268  0498                     	;# 
  1269  0499                     	;# 
  1270  049A                     	;# 
  1271  049B                     	;# 
  1272  049C                     	;# 
  1273  049D                     	;# 
  1274  050C                     	;# 
  1275  050C                     	;# 
  1276  050D                     	;# 
  1277  050E                     	;# 
  1278  050F                     	;# 
  1279  050F                     	;# 
  1280  0510                     	;# 
  1281  0511                     	;# 
  1282  0512                     	;# 
  1283  0512                     	;# 
  1284  0513                     	;# 
  1285  0514                     	;# 
  1286  0515                     	;# 
  1287  0515                     	;# 
  1288  0516                     	;# 
  1289  0517                     	;# 
  1290  0518                     	;# 
  1291  0519                     	;# 
  1292  051A                     	;# 
  1293  051B                     	;# 
  1294  051C                     	;# 
  1295  051D                     	;# 
  1296  058C                     	;# 
  1297  058C                     	;# 
  1298  058D                     	;# 
  1299  058E                     	;# 
  1300  058F                     	;# 
  1301  058F                     	;# 
  1302  0590                     	;# 
  1303  0591                     	;# 
  1304  0592                     	;# 
  1305  0593                     	;# 
  1306  060C                     	;# 
  1307  060D                     	;# 
  1308  060E                     	;# 
  1309  060F                     	;# 
  1310  0610                     	;# 
  1311  0611                     	;# 
  1312  0612                     	;# 
  1313  0613                     	;# 
  1314  0614                     	;# 
  1315  0616                     	;# 
  1316  0617                     	;# 
  1317  0618                     	;# 
  1318  0619                     	;# 
  1319  061A                     	;# 
  1320  061B                     	;# 
  1321  061C                     	;# 
  1322  061D                     	;# 
  1323  061E                     	;# 
  1324  068C                     	;# 
  1325  068D                     	;# 
  1326  068E                     	;# 
  1327  068F                     	;# 
  1328  0690                     	;# 
  1329  0691                     	;# 
  1330  0692                     	;# 
  1331  0693                     	;# 
  1332  0694                     	;# 
  1333  070C                     	;# 
  1334  070D                     	;# 
  1335  070E                     	;# 
  1336  070F                     	;# 
  1337  0710                     	;# 
  1338  0711                     	;# 
  1339  0712                     	;# 
  1340  0713                     	;# 
  1341  0714                     	;# 
  1342  0716                     	;# 
  1343  0717                     	;# 
  1344  0718                     	;# 
  1345  0719                     	;# 
  1346  071A                     	;# 
  1347  071B                     	;# 
  1348  071C                     	;# 
  1349  071D                     	;# 
  1350  071E                     	;# 
  1351  0796                     	;# 
  1352  0797                     	;# 
  1353  0798                     	;# 
  1354  0799                     	;# 
  1355  079A                     	;# 
  1356  079B                     	;# 
  1357  080C                     	;# 
  1358  080D                     	;# 
  1359  080E                     	;# 
  1360  080F                     	;# 
  1361  0810                     	;# 
  1362  0811                     	;# 
  1363  0812                     	;# 
  1364  0813                     	;# 
  1365  0814                     	;# 
  1366  081A                     	;# 
  1367  081B                     	;# 
  1368  081C                     	;# 
  1369  081D                     	;# 
  1370  081E                     	;# 
  1371  081F                     	;# 
  1372  088C                     	;# 
  1373  088D                     	;# 
  1374  088E                     	;# 
  1375  088F                     	;# 
  1376  0890                     	;# 
  1377  0891                     	;# 
  1378  0892                     	;# 
  1379  0893                     	;# 
  1380  0895                     	;# 
  1381  0896                     	;# 
  1382  0897                     	;# 
  1383  0898                     	;# 
  1384  0899                     	;# 
  1385  089A                     	;# 
  1386  089B                     	;# 
  1387  090C                     	;# 
  1388  090E                     	;# 
  1389  090F                     	;# 
  1390  091F                     	;# 
  1391  098F                     	;# 
  1392  098F                     	;# 
  1393  0990                     	;# 
  1394  0991                     	;# 
  1395  0992                     	;# 
  1396  0993                     	;# 
  1397  0994                     	;# 
  1398  0995                     	;# 
  1399  0996                     	;# 
  1400  0997                     	;# 
  1401  1E0F                     	;# 
  1402  1E10                     	;# 
  1403  1E11                     	;# 
  1404  1E12                     	;# 
  1405  1E13                     	;# 
  1406  1E14                     	;# 
  1407  1E15                     	;# 
  1408  1E16                     	;# 
  1409  1E17                     	;# 
  1410  1E18                     	;# 
  1411  1E19                     	;# 
  1412  1E1A                     	;# 
  1413  1E1B                     	;# 
  1414  1E1C                     	;# 
  1415  1E1D                     	;# 
  1416  1E1E                     	;# 
  1417  1E1F                     	;# 
  1418  1E20                     	;# 
  1419  1E21                     	;# 
  1420  1E22                     	;# 
  1421  1E23                     	;# 
  1422  1E24                     	;# 
  1423  1E25                     	;# 
  1424  1E26                     	;# 
  1425  1E27                     	;# 
  1426  1E28                     	;# 
  1427  1E29                     	;# 
  1428  1E2A                     	;# 
  1429  1E2B                     	;# 
  1430  1E2C                     	;# 
  1431  1E2D                     	;# 
  1432  1E2E                     	;# 
  1433  1E2F                     	;# 
  1434  1E30                     	;# 
  1435  1E31                     	;# 
  1436  1E32                     	;# 
  1437  1E33                     	;# 
  1438  1E34                     	;# 
  1439  1E35                     	;# 
  1440  1E36                     	;# 
  1441  1E37                     	;# 
  1442  1E8F                     	;# 
  1443  1E90                     	;# 
  1444  1E91                     	;# 
  1445  1E92                     	;# 
  1446  1E93                     	;# 
  1447  1E94                     	;# 
  1448  1E95                     	;# 
  1449  1E96                     	;# 
  1450  1E97                     	;# 
  1451  1E9C                     	;# 
  1452  1E9D                     	;# 
  1453  1E9E                     	;# 
  1454  1EA1                     	;# 
  1455  1EA2                     	;# 
  1456  1EA3                     	;# 
  1457  1EA4                     	;# 
  1458  1EA5                     	;# 
  1459  1EA9                     	;# 
  1460  1EAA                     	;# 
  1461  1EAB                     	;# 
  1462  1EAC                     	;# 
  1463  1EB1                     	;# 
  1464  1EB2                     	;# 
  1465  1EB3                     	;# 
  1466  1EB8                     	;# 
  1467  1EB9                     	;# 
  1468  1EBA                     	;# 
  1469  1EBB                     	;# 
  1470  1EBC                     	;# 
  1471  1EBD                     	;# 
  1472  1EBE                     	;# 
  1473  1EC3                     	;# 
  1474  1EC5                     	;# 
  1475  1EC6                     	;# 
  1476  1EC7                     	;# 
  1477  1EC8                     	;# 
  1478  1EC9                     	;# 
  1479  1ECA                     	;# 
  1480  1ECB                     	;# 
  1481  1ECC                     	;# 
  1482  1F10                     	;# 
  1483  1F11                     	;# 
  1484  1F12                     	;# 
  1485  1F13                     	;# 
  1486  1F14                     	;# 
  1487  1F15                     	;# 
  1488  1F16                     	;# 
  1489  1F17                     	;# 
  1490  1F18                     	;# 
  1491  1F19                     	;# 
  1492  1F1A                     	;# 
  1493  1F1B                     	;# 
  1494  1F1C                     	;# 
  1495  1F1D                     	;# 
  1496  1F1E                     	;# 
  1497  1F1F                     	;# 
  1498  1F20                     	;# 
  1499  1F21                     	;# 
  1500  1F22                     	;# 
  1501  1F23                     	;# 
  1502  1F24                     	;# 
  1503  1F25                     	;# 
  1504  1F26                     	;# 
  1505  1F27                     	;# 
  1506  1F38                     	;# 
  1507  1F39                     	;# 
  1508  1F3A                     	;# 
  1509  1F3B                     	;# 
  1510  1F3C                     	;# 
  1511  1F3D                     	;# 
  1512  1F3E                     	;# 
  1513  1F3F                     	;# 
  1514  1F40                     	;# 
  1515  1F41                     	;# 
  1516  1F43                     	;# 
  1517  1F44                     	;# 
  1518  1F45                     	;# 
  1519  1F46                     	;# 
  1520  1F47                     	;# 
  1521  1F48                     	;# 
  1522  1F49                     	;# 
  1523  1F4A                     	;# 
  1524  1F4B                     	;# 
  1525  1F4C                     	;# 
  1526  1F4E                     	;# 
  1527  1F4F                     	;# 
  1528  1F50                     	;# 
  1529  1F51                     	;# 
  1530  1F52                     	;# 
  1531  1F53                     	;# 
  1532  1F54                     	;# 
  1533  1F55                     	;# 
  1534  1F56                     	;# 
  1535  1F57                     	;# 
  1536  1F65                     	;# 
  1537  1F68                     	;# 
  1538  1F69                     	;# 
  1539  1F6A                     	;# 
  1540  1F6B                     	;# 
  1541  1FE4                     	;# 
  1542  1FE5                     	;# 
  1543  1FE6                     	;# 
  1544  1FE7                     	;# 
  1545  1FE8                     	;# 
  1546  1FE9                     	;# 
  1547  1FEA                     	;# 
  1548  1FEB                     	;# 
  1549  1FED                     	;# 
  1550  1FEE                     	;# 
  1551  1FEF                     	;# 
  1552  0000                     	;# 
  1553  0001                     	;# 
  1554  0002                     	;# 
  1555  0003                     	;# 
  1556  0004                     	;# 
  1557  0005                     	;# 
  1558  0006                     	;# 
  1559  0007                     	;# 
  1560  0008                     	;# 
  1561  0009                     	;# 
  1562  000A                     	;# 
  1563  000B                     	;# 
  1564  000C                     	;# 
  1565  000D                     	;# 
  1566  000E                     	;# 
  1567  0010                     	;# 
  1568  0011                     	;# 
  1569  0012                     	;# 
  1570  0013                     	;# 
  1571  0016                     	;# 
  1572  0017                     	;# 
  1573  0018                     	;# 
  1574  001C                     	;# 
  1575  001C                     	;# 
  1576  001D                     	;# 
  1577  001D                     	;# 
  1578  001E                     	;# 
  1579  001F                     	;# 
  1580  008C                     	;# 
  1581  008C                     	;# 
  1582  008D                     	;# 
  1583  008E                     	;# 
  1584  008E                     	;# 
  1585  008F                     	;# 
  1586  0090                     	;# 
  1587  0090                     	;# 
  1588  0091                     	;# 
  1589  0093                     	;# 
  1590  0094                     	;# 
  1591  0095                     	;# 
  1592  0096                     	;# 
  1593  0097                     	;# 
  1594  0098                     	;# 
  1595  0099                     	;# 
  1596  009A                     	;# 
  1597  009B                     	;# 
  1598  009C                     	;# 
  1599  009D                     	;# 
  1600  009E                     	;# 
  1601  010C                     	;# 
  1602  010D                     	;# 
  1603  010E                     	;# 
  1604  010E                     	;# 
  1605  010F                     	;# 
  1606  0110                     	;# 
  1607  0110                     	;# 
  1608  0111                     	;# 
  1609  0112                     	;# 
  1610  0112                     	;# 
  1611  0113                     	;# 
  1612  0114                     	;# 
  1613  0114                     	;# 
  1614  0115                     	;# 
  1615  0116                     	;# 
  1616  0116                     	;# 
  1617  0117                     	;# 
  1618  0119                     	;# 
  1619  0119                     	;# 
  1620  0119                     	;# 
  1621  011A                     	;# 
  1622  011A                     	;# 
  1623  011A                     	;# 
  1624  011B                     	;# 
  1625  011B                     	;# 
  1626  011B                     	;# 
  1627  011B                     	;# 
  1628  011B                     	;# 
  1629  011C                     	;# 
  1630  011C                     	;# 
  1631  011C                     	;# 
  1632  011D                     	;# 
  1633  011D                     	;# 
  1634  011D                     	;# 
  1635  011E                     	;# 
  1636  011E                     	;# 
  1637  011E                     	;# 
  1638  011F                     	;# 
  1639  011F                     	;# 
  1640  011F                     	;# 
  1641  011F                     	;# 
  1642  011F                     	;# 
  1643  018C                     	;# 
  1644  018D                     	;# 
  1645  018E                     	;# 
  1646  018F                     	;# 
  1647  0190                     	;# 
  1648  0191                     	;# 
  1649  0192                     	;# 
  1650  0196                     	;# 
  1651  0197                     	;# 
  1652  0198                     	;# 
  1653  0199                     	;# 
  1654  019A                     	;# 
  1655  019B                     	;# 
  1656  019C                     	;# 
  1657  020C                     	;# 
  1658  020D                     	;# 
  1659  020E                     	;# 
  1660  020F                     	;# 
  1661  020F                     	;# 
  1662  0210                     	;# 
  1663  0210                     	;# 
  1664  0211                     	;# 
  1665  0211                     	;# 
  1666  0212                     	;# 
  1667  0213                     	;# 
  1668  0214                     	;# 
  1669  0215                     	;# 
  1670  0215                     	;# 
  1671  0216                     	;# 
  1672  0216                     	;# 
  1673  0217                     	;# 
  1674  0217                     	;# 
  1675  0218                     	;# 
  1676  0219                     	;# 
  1677  021A                     	;# 
  1678  021B                     	;# 
  1679  021B                     	;# 
  1680  021C                     	;# 
  1681  021C                     	;# 
  1682  021D                     	;# 
  1683  021D                     	;# 
  1684  021E                     	;# 
  1685  021F                     	;# 
  1686  028C                     	;# 
  1687  028C                     	;# 
  1688  028D                     	;# 
  1689  028D                     	;# 
  1690  028E                     	;# 
  1691  028F                     	;# 
  1692  0290                     	;# 
  1693  0290                     	;# 
  1694  0291                     	;# 
  1695  0292                     	;# 
  1696  0292                     	;# 
  1697  0293                     	;# 
  1698  0293                     	;# 
  1699  0294                     	;# 
  1700  0295                     	;# 
  1701  0296                     	;# 
  1702  0296                     	;# 
  1703  0297                     	;# 
  1704  0298                     	;# 
  1705  0298                     	;# 
  1706  0299                     	;# 
  1707  0299                     	;# 
  1708  029A                     	;# 
  1709  029B                     	;# 
  1710  029C                     	;# 
  1711  029C                     	;# 
  1712  029D                     	;# 
  1713  030C                     	;# 
  1714  030C                     	;# 
  1715  030D                     	;# 
  1716  030E                     	;# 
  1717  030F                     	;# 
  1718  0310                     	;# 
  1719  0310                     	;# 
  1720  0311                     	;# 
  1721  0312                     	;# 
  1722  0313                     	;# 
  1723  0314                     	;# 
  1724  0314                     	;# 
  1725  0315                     	;# 
  1726  0316                     	;# 
  1727  0317                     	;# 
  1728  0318                     	;# 
  1729  0318                     	;# 
  1730  0319                     	;# 
  1731  031A                     	;# 
  1732  031B                     	;# 
  1733  031C                     	;# 
  1734  031C                     	;# 
  1735  031D                     	;# 
  1736  031E                     	;# 
  1737  031F                     	;# 
  1738  038C                     	;# 
  1739  038D                     	;# 
  1740  038E                     	;# 
  1741  0390                     	;# 
  1742  0391                     	;# 
  1743  0392                     	;# 
  1744  040C                     	;# 
  1745  040D                     	;# 
  1746  040E                     	;# 
  1747  040F                     	;# 
  1748  0410                     	;# 
  1749  0411                     	;# 
  1750  0416                     	;# 
  1751  0416                     	;# 
  1752  0417                     	;# 
  1753  0418                     	;# 
  1754  0418                     	;# 
  1755  0419                     	;# 
  1756  041A                     	;# 
  1757  041A                     	;# 
  1758  041B                     	;# 
  1759  041C                     	;# 
  1760  041C                     	;# 
  1761  041D                     	;# 
  1762  041E                     	;# 
  1763  041F                     	;# 
  1764  048C                     	;# 
  1765  048C                     	;# 
  1766  048D                     	;# 
  1767  048E                     	;# 
  1768  048F                     	;# 
  1769  048F                     	;# 
  1770  0490                     	;# 
  1771  0491                     	;# 
  1772  0492                     	;# 
  1773  0492                     	;# 
  1774  0493                     	;# 
  1775  0494                     	;# 
  1776  0495                     	;# 
  1777  0495                     	;# 
  1778  0496                     	;# 
  1779  0497                     	;# 
  1780  0498                     	;# 
  1781  0499                     	;# 
  1782  049A                     	;# 
  1783  049B                     	;# 
  1784  049C                     	;# 
  1785  049D                     	;# 
  1786  050C                     	;# 
  1787  050C                     	;# 
  1788  050D                     	;# 
  1789  050E                     	;# 
  1790  050F                     	;# 
  1791  050F                     	;# 
  1792  0510                     	;# 
  1793  0511                     	;# 
  1794  0512                     	;# 
  1795  0512                     	;# 
  1796  0513                     	;# 
  1797  0514                     	;# 
  1798  0515                     	;# 
  1799  0515                     	;# 
  1800  0516                     	;# 
  1801  0517                     	;# 
  1802  0518                     	;# 
  1803  0519                     	;# 
  1804  051A                     	;# 
  1805  051B                     	;# 
  1806  051C                     	;# 
  1807  051D                     	;# 
  1808  058C                     	;# 
  1809  058C                     	;# 
  1810  058D                     	;# 
  1811  058E                     	;# 
  1812  058F                     	;# 
  1813  058F                     	;# 
  1814  0590                     	;# 
  1815  0591                     	;# 
  1816  0592                     	;# 
  1817  0593                     	;# 
  1818  060C                     	;# 
  1819  060D                     	;# 
  1820  060E                     	;# 
  1821  060F                     	;# 
  1822  0610                     	;# 
  1823  0611                     	;# 
  1824  0612                     	;# 
  1825  0613                     	;# 
  1826  0614                     	;# 
  1827  0616                     	;# 
  1828  0617                     	;# 
  1829  0618                     	;# 
  1830  0619                     	;# 
  1831  061A                     	;# 
  1832  061B                     	;# 
  1833  061C                     	;# 
  1834  061D                     	;# 
  1835  061E                     	;# 
  1836  068C                     	;# 
  1837  068D                     	;# 
  1838  068E                     	;# 
  1839  068F                     	;# 
  1840  0690                     	;# 
  1841  0691                     	;# 
  1842  0692                     	;# 
  1843  0693                     	;# 
  1844  0694                     	;# 
  1845  070C                     	;# 
  1846  070D                     	;# 
  1847  070E                     	;# 
  1848  070F                     	;# 
  1849  0710                     	;# 
  1850  0711                     	;# 
  1851  0712                     	;# 
  1852  0713                     	;# 
  1853  0714                     	;# 
  1854  0716                     	;# 
  1855  0717                     	;# 
  1856  0718                     	;# 
  1857  0719                     	;# 
  1858  071A                     	;# 
  1859  071B                     	;# 
  1860  071C                     	;# 
  1861  071D                     	;# 
  1862  071E                     	;# 
  1863  0796                     	;# 
  1864  0797                     	;# 
  1865  0798                     	;# 
  1866  0799                     	;# 
  1867  079A                     	;# 
  1868  079B                     	;# 
  1869  080C                     	;# 
  1870  080D                     	;# 
  1871  080E                     	;# 
  1872  080F                     	;# 
  1873  0810                     	;# 
  1874  0811                     	;# 
  1875  0812                     	;# 
  1876  0813                     	;# 
  1877  0814                     	;# 
  1878  081A                     	;# 
  1879  081B                     	;# 
  1880  081C                     	;# 
  1881  081D                     	;# 
  1882  081E                     	;# 
  1883  081F                     	;# 
  1884  088C                     	;# 
  1885  088D                     	;# 
  1886  088E                     	;# 
  1887  088F                     	;# 
  1888  0890                     	;# 
  1889  0891                     	;# 
  1890  0892                     	;# 
  1891  0893                     	;# 
  1892  0895                     	;# 
  1893  0896                     	;# 
  1894  0897                     	;# 
  1895  0898                     	;# 
  1896  0899                     	;# 
  1897  089A                     	;# 
  1898  089B                     	;# 
  1899  090C                     	;# 
  1900  090E                     	;# 
  1901  090F                     	;# 
  1902  091F                     	;# 
  1903  098F                     	;# 
  1904  098F                     	;# 
  1905  0990                     	;# 
  1906  0991                     	;# 
  1907  0992                     	;# 
  1908  0993                     	;# 
  1909  0994                     	;# 
  1910  0995                     	;# 
  1911  0996                     	;# 
  1912  0997                     	;# 
  1913  1E0F                     	;# 
  1914  1E10                     	;# 
  1915  1E11                     	;# 
  1916  1E12                     	;# 
  1917  1E13                     	;# 
  1918  1E14                     	;# 
  1919  1E15                     	;# 
  1920  1E16                     	;# 
  1921  1E17                     	;# 
  1922  1E18                     	;# 
  1923  1E19                     	;# 
  1924  1E1A                     	;# 
  1925  1E1B                     	;# 
  1926  1E1C                     	;# 
  1927  1E1D                     	;# 
  1928  1E1E                     	;# 
  1929  1E1F                     	;# 
  1930  1E20                     	;# 
  1931  1E21                     	;# 
  1932  1E22                     	;# 
  1933  1E23                     	;# 
  1934  1E24                     	;# 
  1935  1E25                     	;# 
  1936  1E26                     	;# 
  1937  1E27                     	;# 
  1938  1E28                     	;# 
  1939  1E29                     	;# 
  1940  1E2A                     	;# 
  1941  1E2B                     	;# 
  1942  1E2C                     	;# 
  1943  1E2D                     	;# 
  1944  1E2E                     	;# 
  1945  1E2F                     	;# 
  1946  1E30                     	;# 
  1947  1E31                     	;# 
  1948  1E32                     	;# 
  1949  1E33                     	;# 
  1950  1E34                     	;# 
  1951  1E35                     	;# 
  1952  1E36                     	;# 
  1953  1E37                     	;# 
  1954  1E8F                     	;# 
  1955  1E90                     	;# 
  1956  1E91                     	;# 
  1957  1E92                     	;# 
  1958  1E93                     	;# 
  1959  1E94                     	;# 
  1960  1E95                     	;# 
  1961  1E96                     	;# 
  1962  1E97                     	;# 
  1963  1E9C                     	;# 
  1964  1E9D                     	;# 
  1965  1E9E                     	;# 
  1966  1EA1                     	;# 
  1967  1EA2                     	;# 
  1968  1EA3                     	;# 
  1969  1EA4                     	;# 
  1970  1EA5                     	;# 
  1971  1EA9                     	;# 
  1972  1EAA                     	;# 
  1973  1EAB                     	;# 
  1974  1EAC                     	;# 
  1975  1EB1                     	;# 
  1976  1EB2                     	;# 
  1977  1EB3                     	;# 
  1978  1EB8                     	;# 
  1979  1EB9                     	;# 
  1980  1EBA                     	;# 
  1981  1EBB                     	;# 
  1982  1EBC                     	;# 
  1983  1EBD                     	;# 
  1984  1EBE                     	;# 
  1985  1EC3                     	;# 
  1986  1EC5                     	;# 
  1987  1EC6                     	;# 
  1988  1EC7                     	;# 
  1989  1EC8                     	;# 
  1990  1EC9                     	;# 
  1991  1ECA                     	;# 
  1992  1ECB                     	;# 
  1993  1ECC                     	;# 
  1994  1F10                     	;# 
  1995  1F11                     	;# 
  1996  1F12                     	;# 
  1997  1F13                     	;# 
  1998  1F14                     	;# 
  1999  1F15                     	;# 
  2000  1F16                     	;# 
  2001  1F17                     	;# 
  2002  1F18                     	;# 
  2003  1F19                     	;# 
  2004  1F1A                     	;# 
  2005  1F1B                     	;# 
  2006  1F1C                     	;# 
  2007  1F1D                     	;# 
  2008  1F1E                     	;# 
  2009  1F1F                     	;# 
  2010  1F20                     	;# 
  2011  1F21                     	;# 
  2012  1F22                     	;# 
  2013  1F23                     	;# 
  2014  1F24                     	;# 
  2015  1F25                     	;# 
  2016  1F26                     	;# 
  2017  1F27                     	;# 
  2018  1F38                     	;# 
  2019  1F39                     	;# 
  2020  1F3A                     	;# 
  2021  1F3B                     	;# 
  2022  1F3C                     	;# 
  2023  1F3D                     	;# 
  2024  1F3E                     	;# 
  2025  1F3F                     	;# 
  2026  1F40                     	;# 
  2027  1F41                     	;# 
  2028  1F43                     	;# 
  2029  1F44                     	;# 
  2030  1F45                     	;# 
  2031  1F46                     	;# 
  2032  1F47                     	;# 
  2033  1F48                     	;# 
  2034  1F49                     	;# 
  2035  1F4A                     	;# 
  2036  1F4B                     	;# 
  2037  1F4C                     	;# 
  2038  1F4E                     	;# 
  2039  1F4F                     	;# 
  2040  1F50                     	;# 
  2041  1F51                     	;# 
  2042  1F52                     	;# 
  2043  1F53                     	;# 
  2044  1F54                     	;# 
  2045  1F55                     	;# 
  2046  1F56                     	;# 
  2047  1F57                     	;# 
  2048  1F65                     	;# 
  2049  1F68                     	;# 
  2050  1F69                     	;# 
  2051  1F6A                     	;# 
  2052  1F6B                     	;# 
  2053  1FE4                     	;# 
  2054  1FE5                     	;# 
  2055  1FE6                     	;# 
  2056  1FE7                     	;# 
  2057  1FE8                     	;# 
  2058  1FE9                     	;# 
  2059  1FEA                     	;# 
  2060  1FEB                     	;# 
  2061  1FED                     	;# 
  2062  1FEE                     	;# 
  2063  1FEF                     	;# 
  2064  0000                     	;# 
  2065  0001                     	;# 
  2066  0002                     	;# 
  2067  0003                     	;# 
  2068  0004                     	;# 
  2069  0005                     	;# 
  2070  0006                     	;# 
  2071  0007                     	;# 
  2072  0008                     	;# 
  2073  0009                     	;# 
  2074  000A                     	;# 
  2075  000B                     	;# 
  2076  000C                     	;# 
  2077  000D                     	;# 
  2078  000E                     	;# 
  2079  0010                     	;# 
  2080  0011                     	;# 
  2081  0012                     	;# 
  2082  0013                     	;# 
  2083  0016                     	;# 
  2084  0017                     	;# 
  2085  0018                     	;# 
  2086  001C                     	;# 
  2087  001C                     	;# 
  2088  001D                     	;# 
  2089  001D                     	;# 
  2090  001E                     	;# 
  2091  001F                     	;# 
  2092  008C                     	;# 
  2093  008C                     	;# 
  2094  008D                     	;# 
  2095  008E                     	;# 
  2096  008E                     	;# 
  2097  008F                     	;# 
  2098  0090                     	;# 
  2099  0090                     	;# 
  2100  0091                     	;# 
  2101  0093                     	;# 
  2102  0094                     	;# 
  2103  0095                     	;# 
  2104  0096                     	;# 
  2105  0097                     	;# 
  2106  0098                     	;# 
  2107  0099                     	;# 
  2108  009A                     	;# 
  2109  009B                     	;# 
  2110  009C                     	;# 
  2111  009D                     	;# 
  2112  009E                     	;# 
  2113  010C                     	;# 
  2114  010D                     	;# 
  2115  010E                     	;# 
  2116  010E                     	;# 
  2117  010F                     	;# 
  2118  0110                     	;# 
  2119  0110                     	;# 
  2120  0111                     	;# 
  2121  0112                     	;# 
  2122  0112                     	;# 
  2123  0113                     	;# 
  2124  0114                     	;# 
  2125  0114                     	;# 
  2126  0115                     	;# 
  2127  0116                     	;# 
  2128  0116                     	;# 
  2129  0117                     	;# 
  2130  0119                     	;# 
  2131  0119                     	;# 
  2132  0119                     	;# 
  2133  011A                     	;# 
  2134  011A                     	;# 
  2135  011A                     	;# 
  2136  011B                     	;# 
  2137  011B                     	;# 
  2138  011B                     	;# 
  2139  011B                     	;# 
  2140  011B                     	;# 
  2141  011C                     	;# 
  2142  011C                     	;# 
  2143  011C                     	;# 
  2144  011D                     	;# 
  2145  011D                     	;# 
  2146  011D                     	;# 
  2147  011E                     	;# 
  2148  011E                     	;# 
  2149  011E                     	;# 
  2150  011F                     	;# 
  2151  011F                     	;# 
  2152  011F                     	;# 
  2153  011F                     	;# 
  2154  011F                     	;# 
  2155  018C                     	;# 
  2156  018D                     	;# 
  2157  018E                     	;# 
  2158  018F                     	;# 
  2159  0190                     	;# 
  2160  0191                     	;# 
  2161  0192                     	;# 
  2162  0196                     	;# 
  2163  0197                     	;# 
  2164  0198                     	;# 
  2165  0199                     	;# 
  2166  019A                     	;# 
  2167  019B                     	;# 
  2168  019C                     	;# 
  2169  020C                     	;# 
  2170  020D                     	;# 
  2171  020E                     	;# 
  2172  020F                     	;# 
  2173  020F                     	;# 
  2174  0210                     	;# 
  2175  0210                     	;# 
  2176  0211                     	;# 
  2177  0211                     	;# 
  2178  0212                     	;# 
  2179  0213                     	;# 
  2180  0214                     	;# 
  2181  0215                     	;# 
  2182  0215                     	;# 
  2183  0216                     	;# 
  2184  0216                     	;# 
  2185  0217                     	;# 
  2186  0217                     	;# 
  2187  0218                     	;# 
  2188  0219                     	;# 
  2189  021A                     	;# 
  2190  021B                     	;# 
  2191  021B                     	;# 
  2192  021C                     	;# 
  2193  021C                     	;# 
  2194  021D                     	;# 
  2195  021D                     	;# 
  2196  021E                     	;# 
  2197  021F                     	;# 
  2198  028C                     	;# 
  2199  028C                     	;# 
  2200  028D                     	;# 
  2201  028D                     	;# 
  2202  028E                     	;# 
  2203  028F                     	;# 
  2204  0290                     	;# 
  2205  0290                     	;# 
  2206  0291                     	;# 
  2207  0292                     	;# 
  2208  0292                     	;# 
  2209  0293                     	;# 
  2210  0293                     	;# 
  2211  0294                     	;# 
  2212  0295                     	;# 
  2213  0296                     	;# 
  2214  0296                     	;# 
  2215  0297                     	;# 
  2216  0298                     	;# 
  2217  0298                     	;# 
  2218  0299                     	;# 
  2219  0299                     	;# 
  2220  029A                     	;# 
  2221  029B                     	;# 
  2222  029C                     	;# 
  2223  029C                     	;# 
  2224  029D                     	;# 
  2225  030C                     	;# 
  2226  030C                     	;# 
  2227  030D                     	;# 
  2228  030E                     	;# 
  2229  030F                     	;# 
  2230  0310                     	;# 
  2231  0310                     	;# 
  2232  0311                     	;# 
  2233  0312                     	;# 
  2234  0313                     	;# 
  2235  0314                     	;# 
  2236  0314                     	;# 
  2237  0315                     	;# 
  2238  0316                     	;# 
  2239  0317                     	;# 
  2240  0318                     	;# 
  2241  0318                     	;# 
  2242  0319                     	;# 
  2243  031A                     	;# 
  2244  031B                     	;# 
  2245  031C                     	;# 
  2246  031C                     	;# 
  2247  031D                     	;# 
  2248  031E                     	;# 
  2249  031F                     	;# 
  2250  038C                     	;# 
  2251  038D                     	;# 
  2252  038E                     	;# 
  2253  0390                     	;# 
  2254  0391                     	;# 
  2255  0392                     	;# 
  2256  040C                     	;# 
  2257  040D                     	;# 
  2258  040E                     	;# 
  2259  040F                     	;# 
  2260  0410                     	;# 
  2261  0411                     	;# 
  2262  0416                     	;# 
  2263  0416                     	;# 
  2264  0417                     	;# 
  2265  0418                     	;# 
  2266  0418                     	;# 
  2267  0419                     	;# 
  2268  041A                     	;# 
  2269  041A                     	;# 
  2270  041B                     	;# 
  2271  041C                     	;# 
  2272  041C                     	;# 
  2273  041D                     	;# 
  2274  041E                     	;# 
  2275  041F                     	;# 
  2276  048C                     	;# 
  2277  048C                     	;# 
  2278  048D                     	;# 
  2279  048E                     	;# 
  2280  048F                     	;# 
  2281  048F                     	;# 
  2282  0490                     	;# 
  2283  0491                     	;# 
  2284  0492                     	;# 
  2285  0492                     	;# 
  2286  0493                     	;# 
  2287  0494                     	;# 
  2288  0495                     	;# 
  2289  0495                     	;# 
  2290  0496                     	;# 
  2291  0497                     	;# 
  2292  0498                     	;# 
  2293  0499                     	;# 
  2294  049A                     	;# 
  2295  049B                     	;# 
  2296  049C                     	;# 
  2297  049D                     	;# 
  2298  050C                     	;# 
  2299  050C                     	;# 
  2300  050D                     	;# 
  2301  050E                     	;# 
  2302  050F                     	;# 
  2303  050F                     	;# 
  2304  0510                     	;# 
  2305  0511                     	;# 
  2306  0512                     	;# 
  2307  0512                     	;# 
  2308  0513                     	;# 
  2309  0514                     	;# 
  2310  0515                     	;# 
  2311  0515                     	;# 
  2312  0516                     	;# 
  2313  0517                     	;# 
  2314  0518                     	;# 
  2315  0519                     	;# 
  2316  051A                     	;# 
  2317  051B                     	;# 
  2318  051C                     	;# 
  2319  051D                     	;# 
  2320  058C                     	;# 
  2321  058C                     	;# 
  2322  058D                     	;# 
  2323  058E                     	;# 
  2324  058F                     	;# 
  2325  058F                     	;# 
  2326  0590                     	;# 
  2327  0591                     	;# 
  2328  0592                     	;# 
  2329  0593                     	;# 
  2330  060C                     	;# 
  2331  060D                     	;# 
  2332  060E                     	;# 
  2333  060F                     	;# 
  2334  0610                     	;# 
  2335  0611                     	;# 
  2336  0612                     	;# 
  2337  0613                     	;# 
  2338  0614                     	;# 
  2339  0616                     	;# 
  2340  0617                     	;# 
  2341  0618                     	;# 
  2342  0619                     	;# 
  2343  061A                     	;# 
  2344  061B                     	;# 
  2345  061C                     	;# 
  2346  061D                     	;# 
  2347  061E                     	;# 
  2348  068C                     	;# 
  2349  068D                     	;# 
  2350  068E                     	;# 
  2351  068F                     	;# 
  2352  0690                     	;# 
  2353  0691                     	;# 
  2354  0692                     	;# 
  2355  0693                     	;# 
  2356  0694                     	;# 
  2357  070C                     	;# 
  2358  070D                     	;# 
  2359  070E                     	;# 
  2360  070F                     	;# 
  2361  0710                     	;# 
  2362  0711                     	;# 
  2363  0712                     	;# 
  2364  0713                     	;# 
  2365  0714                     	;# 
  2366  0716                     	;# 
  2367  0717                     	;# 
  2368  0718                     	;# 
  2369  0719                     	;# 
  2370  071A                     	;# 
  2371  071B                     	;# 
  2372  071C                     	;# 
  2373  071D                     	;# 
  2374  071E                     	;# 
  2375  0796                     	;# 
  2376  0797                     	;# 
  2377  0798                     	;# 
  2378  0799                     	;# 
  2379  079A                     	;# 
  2380  079B                     	;# 
  2381  080C                     	;# 
  2382  080D                     	;# 
  2383  080E                     	;# 
  2384  080F                     	;# 
  2385  0810                     	;# 
  2386  0811                     	;# 
  2387  0812                     	;# 
  2388  0813                     	;# 
  2389  0814                     	;# 
  2390  081A                     	;# 
  2391  081B                     	;# 
  2392  081C                     	;# 
  2393  081D                     	;# 
  2394  081E                     	;# 
  2395  081F                     	;# 
  2396  088C                     	;# 
  2397  088D                     	;# 
  2398  088E                     	;# 
  2399  088F                     	;# 
  2400  0890                     	;# 
  2401  0891                     	;# 
  2402  0892                     	;# 
  2403  0893                     	;# 
  2404  0895                     	;# 
  2405  0896                     	;# 
  2406  0897                     	;# 
  2407  0898                     	;# 
  2408  0899                     	;# 
  2409  089A                     	;# 
  2410  089B                     	;# 
  2411  090C                     	;# 
  2412  090E                     	;# 
  2413  090F                     	;# 
  2414  091F                     	;# 
  2415  098F                     	;# 
  2416  098F                     	;# 
  2417  0990                     	;# 
  2418  0991                     	;# 
  2419  0992                     	;# 
  2420  0993                     	;# 
  2421  0994                     	;# 
  2422  0995                     	;# 
  2423  0996                     	;# 
  2424  0997                     	;# 
  2425  1E0F                     	;# 
  2426  1E10                     	;# 
  2427  1E11                     	;# 
  2428  1E12                     	;# 
  2429  1E13                     	;# 
  2430  1E14                     	;# 
  2431  1E15                     	;# 
  2432  1E16                     	;# 
  2433  1E17                     	;# 
  2434  1E18                     	;# 
  2435  1E19                     	;# 
  2436  1E1A                     	;# 
  2437  1E1B                     	;# 
  2438  1E1C                     	;# 
  2439  1E1D                     	;# 
  2440  1E1E                     	;# 
  2441  1E1F                     	;# 
  2442  1E20                     	;# 
  2443  1E21                     	;# 
  2444  1E22                     	;# 
  2445  1E23                     	;# 
  2446  1E24                     	;# 
  2447  1E25                     	;# 
  2448  1E26                     	;# 
  2449  1E27                     	;# 
  2450  1E28                     	;# 
  2451  1E29                     	;# 
  2452  1E2A                     	;# 
  2453  1E2B                     	;# 
  2454  1E2C                     	;# 
  2455  1E2D                     	;# 
  2456  1E2E                     	;# 
  2457  1E2F                     	;# 
  2458  1E30                     	;# 
  2459  1E31                     	;# 
  2460  1E32                     	;# 
  2461  1E33                     	;# 
  2462  1E34                     	;# 
  2463  1E35                     	;# 
  2464  1E36                     	;# 
  2465  1E37                     	;# 
  2466  1E8F                     	;# 
  2467  1E90                     	;# 
  2468  1E91                     	;# 
  2469  1E92                     	;# 
  2470  1E93                     	;# 
  2471  1E94                     	;# 
  2472  1E95                     	;# 
  2473  1E96                     	;# 
  2474  1E97                     	;# 
  2475  1E9C                     	;# 
  2476  1E9D                     	;# 
  2477  1E9E                     	;# 
  2478  1EA1                     	;# 
  2479  1EA2                     	;# 
  2480  1EA3                     	;# 
  2481  1EA4                     	;# 
  2482  1EA5                     	;# 
  2483  1EA9                     	;# 
  2484  1EAA                     	;# 
  2485  1EAB                     	;# 
  2486  1EAC                     	;# 
  2487  1EB1                     	;# 
  2488  1EB2                     	;# 
  2489  1EB3                     	;# 
  2490  1EB8                     	;# 
  2491  1EB9                     	;# 
  2492  1EBA                     	;# 
  2493  1EBB                     	;# 
  2494  1EBC                     	;# 
  2495  1EBD                     	;# 
  2496  1EBE                     	;# 
  2497  1EC3                     	;# 
  2498  1EC5                     	;# 
  2499  1EC6                     	;# 
  2500  1EC7                     	;# 
  2501  1EC8                     	;# 
  2502  1EC9                     	;# 
  2503  1ECA                     	;# 
  2504  1ECB                     	;# 
  2505  1ECC                     	;# 
  2506  1F10                     	;# 
  2507  1F11                     	;# 
  2508  1F12                     	;# 
  2509  1F13                     	;# 
  2510  1F14                     	;# 
  2511  1F15                     	;# 
  2512  1F16                     	;# 
  2513  1F17                     	;# 
  2514  1F18                     	;# 
  2515  1F19                     	;# 
  2516  1F1A                     	;# 
  2517  1F1B                     	;# 
  2518  1F1C                     	;# 
  2519  1F1D                     	;# 
  2520  1F1E                     	;# 
  2521  1F1F                     	;# 
  2522  1F20                     	;# 
  2523  1F21                     	;# 
  2524  1F22                     	;# 
  2525  1F23                     	;# 
  2526  1F24                     	;# 
  2527  1F25                     	;# 
  2528  1F26                     	;# 
  2529  1F27                     	;# 
  2530  1F38                     	;# 
  2531  1F39                     	;# 
  2532  1F3A                     	;# 
  2533  1F3B                     	;# 
  2534  1F3C                     	;# 
  2535  1F3D                     	;# 
  2536  1F3E                     	;# 
  2537  1F3F                     	;# 
  2538  1F40                     	;# 
  2539  1F41                     	;# 
  2540  1F43                     	;# 
  2541  1F44                     	;# 
  2542  1F45                     	;# 
  2543  1F46                     	;# 
  2544  1F47                     	;# 
  2545  1F48                     	;# 
  2546  1F49                     	;# 
  2547  1F4A                     	;# 
  2548  1F4B                     	;# 
  2549  1F4C                     	;# 
  2550  1F4E                     	;# 
  2551  1F4F                     	;# 
  2552  1F50                     	;# 
  2553  1F51                     	;# 
  2554  1F52                     	;# 
  2555  1F53                     	;# 
  2556  1F54                     	;# 
  2557  1F55                     	;# 
  2558  1F56                     	;# 
  2559  1F57                     	;# 
  2560  1F65                     	;# 
  2561  1F68                     	;# 
  2562  1F69                     	;# 
  2563  1F6A                     	;# 
  2564  1F6B                     	;# 
  2565  1FE4                     	;# 
  2566  1FE5                     	;# 
  2567  1FE6                     	;# 
  2568  1FE7                     	;# 
  2569  1FE8                     	;# 
  2570  1FE9                     	;# 
  2571  1FEA                     	;# 
  2572  1FEB                     	;# 
  2573  1FED                     	;# 
  2574  1FEE                     	;# 
  2575  1FEF                     	;# 
  2576  000B                     _INTCONbits	set	11
  2577  0016                     _LATA	set	22
  2578  0017                     _LATB	set	23
  2579  0018                     _LATC	set	24
  2580  0011                     _TRISA	set	17
  2581  0012                     _TRISB	set	18
  2582  0013                     _TRISC	set	19
  2583  00B1                     _LATA1	set	177
  2584  0091                     _ADACCH	set	145
  2585  0090                     _ADACCL	set	144
  2586  009D                     _ADACQ	set	157
  2587  0099                     _ADACT	set	153
  2588  009B                     _ADCAP	set	155
  2589  0098                     _ADCLK	set	152
  2590  0093                     _ADCON0	set	147
  2591  0093                     _ADCON0bits	set	147
  2592  0094                     _ADCON1	set	148
  2593  0094                     _ADCON1bits	set	148
  2594  0095                     _ADCON2	set	149
  2595  0095                     _ADCON2bits	set	149
  2596  0096                     _ADCON3	set	150
  2597  0096                     _ADCON3bits	set	150
  2598  009E                     _ADPCH	set	158
  2599  009C                     _ADPRE	set	156
  2600  008F                     _ADPREVH	set	143
  2601  008E                     _ADPREVL	set	142
  2602  009A                     _ADREF	set	154
  2603  008D                     _ADRESH	set	141
  2604  008C                     _ADRESL	set	140
  2605  0097                     _ADSTAT	set	151
  2606  0097                     _ADSTATbits	set	151
  2607  010C                     _ADCNT	set	268
  2608  0117                     _ADERRH	set	279
  2609  0116                     _ADERRL	set	278
  2610  0115                     _ADFLTRH	set	277
  2611  0114                     _ADFLTRL	set	276
  2612  010F                     _ADLTHH	set	271
  2613  010E                     _ADLTHL	set	270
  2614  010D                     _ADRPT	set	269
  2615  0113                     _ADSTPTH	set	275
  2616  0112                     _ADSTPTL	set	274
  2617  0111                     _ADUTHH	set	273
  2618  0110                     _ADUTHL	set	272
  2619  0717                     _PIE1bits	set	1815
  2620  070D                     _PIR1bits	set	1805
  2621  088D                     _OSCCON1	set	2189
  2622  088F                     _OSCCON3	set	2191
  2623  0891                     _OSCEN	set	2193
  2624  0893                     _OSCFRQ	set	2195
  2625  0890                     _OSCSTAT	set	2192
  2626  0892                     _OSCTUNE	set	2194
  2627  1F38                     _ANSELA	set	7992
  2628  1F43                     _ANSELB	set	8003
  2629  1F4E                     _ANSELC	set	8014
  2630  1F39                     _WPUA	set	7993
  2631  1F44                     _WPUB	set	8004
  2632  1F4F                     _WPUC	set	8015
  2633                           
  2634                           ; #config settings
  2635  0000                     
  2636                           	psect	cinit
  2637  0018                     start_initialization:	
  2638  0018                     __initialization:	
  2639  0018                     end_of_initialization:	
  2640                           ;End of C runtime variable initialization code
  2641                           
  2642  0018                     __end_of__initialization:	
  2643  0018  107E               	bcf	int$flags,0	;clear compiler interrupt flag (level 1)
  2644  0019  0140               	movlb	0
  2645  001A  3180  281C         	ljmp	_main	;jump to C main() function
  2646                           
  2647                           	psect	cstackCOMMON
  2648  0070                     __pcstackCOMMON:	
  2649  0070                     ?_PIN_MANAGER_Initialize:	
  2650  0070                     ?_OSCILLATOR_Initialize:	
  2651                           ; 1 bytes @ 0x0
  2652                           
  2653  0070                     ?_ADCC_Initialize:	
  2654                           ; 1 bytes @ 0x0
  2655                           
  2656  0070                     ?_ADCC_StartConversion:	
  2657                           ; 1 bytes @ 0x0
  2658                           
  2659  0070                     ?_ADCC_ISR:	
  2660                           ; 1 bytes @ 0x0
  2661                           
  2662  0070                     ??_ADCC_ISR:	
  2663                           ; 1 bytes @ 0x0
  2664                           
  2665  0070                     ?_SYSTEM_Initialize:	
  2666                           ; 1 bytes @ 0x0
  2667                           
  2668  0070                     ?_INTERRUPT_InterruptManager:	
  2669                           ; 1 bytes @ 0x0
  2670                           
  2671  0070                     ??_INTERRUPT_InterruptManager:	
  2672                           ; 1 bytes @ 0x0
  2673                           
  2674  0070                     ?_main:	
  2675                           ; 1 bytes @ 0x0
  2676                           
  2677                           
  2678                           ; 1 bytes @ 0x0
  2679  0070                     	ds	1
  2680  0071                     ??_PIN_MANAGER_Initialize:	
  2681  0071                     ??_OSCILLATOR_Initialize:	
  2682                           ; 1 bytes @ 0x1
  2683                           
  2684  0071                     ??_ADCC_Initialize:	
  2685                           ; 1 bytes @ 0x1
  2686                           
  2687  0071                     ??_ADCC_StartConversion:	
  2688                           ; 1 bytes @ 0x1
  2689                           
  2690  0071                     ??_SYSTEM_Initialize:	
  2691                           ; 1 bytes @ 0x1
  2692                           
  2693  0071                     ?_ADCC_GetConversionResult:	
  2694                           ; 1 bytes @ 0x1
  2695                           
  2696  0071                     ADCC_StartConversion@channel:	
  2697                           ; 2 bytes @ 0x1
  2698                           
  2699                           
  2700                           ; 1 bytes @ 0x1
  2701  0071                     	ds	2
  2702  0073                     ??_ADCC_GetConversionResult:	
  2703  0073                     ??_main:	
  2704                           ; 1 bytes @ 0x3
  2705                           
  2706                           
  2707                           ; 1 bytes @ 0x3
  2708  0073                     	ds	1
  2709                           
  2710                           	psect	maintext
  2711  001C                     __pmaintext:	
  2712 ;;
  2713 ;;Main: autosize = 0, tempsize = 1, incstack = 0, save=0
  2714 ;;
  2715 ;; *************** function _main *****************
  2716 ;; Defined at:
  2717 ;;		line 51 in file "main.c"
  2718 ;; Parameters:    Size  Location     Type
  2719 ;;		None
  2720 ;; Auto vars:     Size  Location     Type
  2721 ;;		None
  2722 ;; Return value:  Size  Location     Type
  2723 ;;                  1    wreg      void 
  2724 ;; Registers used:
  2725 ;;		wreg, status,2, status,0, pclath, cstack
  2726 ;; Tracked objects:
  2727 ;;		On entry : B3F/0
  2728 ;;		On exit  : 0/0
  2729 ;;		Unchanged: 0/0
  2730 ;; Data sizes:     COMMON   BANK0   BANK1   BANK2   BANK3   BANK4   BANK5   BANK6   BANK7   BANK8   BANK9  BANK10  BANK1
      +1  BANK12  BANK13  BANK14  BANK15  BANK16  BANK17  BANK18  BANK19  BANK20  BANK21  BANK22  BANK23  BANK24  BANK25  BANK2
      +6  BANK27  BANK28  BANK29  BANK30  BANK31  BANK32  BANK33  BANK34  BANK35  BANK36  BANK37  BANK38  BANK39  BANK40  BANK4
      +1  BANK42  BANK43  BANK44  BANK45  BANK46  BANK47  BANK48  BANK49  BANK50
  2731 ;;      Params:         0       0       0       0       0       0       0       0       0       0       0       0       
      +0       0       0       0       0       0       0       0       0       0       0       0       0       0       0       
      +0       0       0       0       0       0       0       0       0       0       0       0       0       0       0       
      +0       0       0       0       0       0       0       0       0       0
  2732 ;;      Locals:         0       0       0       0       0       0       0       0       0       0       0       0       
      +0       0       0       0       0       0       0       0       0       0       0       0       0       0       0       
      +0       0       0       0       0       0       0       0       0       0       0       0       0       0       0       
      +0       0       0       0       0       0       0       0       0       0
  2733 ;;      Temps:          1       0       0       0       0       0       0       0       0       0       0       0       
      +0       0       0       0       0       0       0       0       0       0       0       0       0       0       0       
      +0       0       0       0       0       0       0       0       0       0       0       0       0       0       0       
      +0       0       0       0       0       0       0       0       0       0
  2734 ;;      Totals:         1       0       0       0       0       0       0       0       0       0       0       0       
      +0       0       0       0       0       0       0       0       0       0       0       0       0       0       0       
      +0       0       0       0       0       0       0       0       0       0       0       0       0       0       0       
      +0       0       0       0       0       0       0       0       0       0
  2735 ;;Total ram usage:        1 bytes
  2736 ;; Hardware stack levels required when called:    4
  2737 ;; This function calls:
  2738 ;;		_ADCC_GetConversionResult
  2739 ;;		_ADCC_Initialize
  2740 ;;		_ADCC_StartConversion
  2741 ;;		_SYSTEM_Initialize
  2742 ;; This function is called by:
  2743 ;;		Startup code after reset
  2744 ;; This function uses a non-reentrant model
  2745 ;;
  2746                           
  2747                           
  2748                           ;psect for function _main
  2749  001C                     _main:	
  2750                           
  2751                           ;main.c: 54: SYSTEM_Initialize();
  2752                           
  2753                           ;incstack = 0
  2754                           ; Regs used in _main: [wreg+status,2+status,0+pclath+cstack]
  2755  001C  3180  2075  3180   	fcall	_SYSTEM_Initialize
  2756  001F                     l865:	
  2757                           ;main.c: 74: while (1)
  2758                           
  2759                           
  2760                           ;main.c: 75: {
  2761                           ;main.c: 77: _delay((unsigned long)((1)*(250000/4000.0)));
  2762  001F  3014               	movlw	20
  2763  0020  00F3               	movwf	??_main
  2764  0021                     u97:	
  2765  0021  0BF3               	decfsz	??_main,f
  2766  0022  2821               	goto	u97
  2767  0023  0000               	nop
  2768                           
  2769                           ;main.c: 78: ADCC_Initialize();
  2770  0024  3180  2044  3180   	fcall	_ADCC_Initialize
  2771                           
  2772                           ;main.c: 79: ADCC_StartConversion(channel_ANA0);
  2773  0027  3000               	movlw	0
  2774  0028  3180  2087  3180   	fcall	_ADCC_StartConversion
  2775                           
  2776                           ;main.c: 83: if(ADCC_GetConversionResult() < 390)
  2777  002B  3180  208E  3180   	fcall	_ADCC_GetConversionResult
  2778  002E  3001               	movlw	1
  2779  002F  0272               	subwf	?_ADCC_GetConversionResult+1,w
  2780  0030  3086               	movlw	134
  2781  0031  1903               	skipnz
  2782  0032  0271               	subwf	?_ADCC_GetConversionResult,w
  2783  0033  1803               	skipnc
  2784  0034  2837               	goto	l873
  2785                           
  2786                           ;main.c: 84: {
  2787                           ;main.c: 85: do { LATA1 = 0; } while(0);
  2788  0035  0140               	movlb	0	; select bank0
  2789  0036  1096               	bcf	22,1	;volatile
  2790  0037                     l873:	
  2791                           
  2792                           ;main.c: 86: }
  2793                           ;main.c: 88: if(ADCC_GetConversionResult() > 450)
  2794  0037  3180  208E  3180   	fcall	_ADCC_GetConversionResult
  2795  003A  3001               	movlw	1
  2796  003B  0272               	subwf	?_ADCC_GetConversionResult+1,w
  2797  003C  30C3               	movlw	195
  2798  003D  1903               	skipnz
  2799  003E  0271               	subwf	?_ADCC_GetConversionResult,w
  2800  003F  1C03               	skipc
  2801  0040  281F               	goto	l865
  2802                           
  2803                           ;main.c: 89: {
  2804                           ;main.c: 90: do { LATA1 = 1; } while(0);
  2805  0041  0140               	movlb	0	; select bank0
  2806  0042  1496               	bsf	22,1	;volatile
  2807  0043  281F               	goto	l865
  2808  0044                     __end_of_main:	
  2809                           
  2810                           	psect	text1
  2811  0075                     __ptext1:	
  2812 ;; *************** function _SYSTEM_Initialize *****************
  2813 ;; Defined at:
  2814 ;;		line 82 in file "mcc_generated_files/mcc.c"
  2815 ;; Parameters:    Size  Location     Type
  2816 ;;		None
  2817 ;; Auto vars:     Size  Location     Type
  2818 ;;		None
  2819 ;; Return value:  Size  Location     Type
  2820 ;;                  1    wreg      void 
  2821 ;; Registers used:
  2822 ;;		wreg, status,2, status,0, pclath, cstack
  2823 ;; Tracked objects:
  2824 ;;		On entry : 0/0
  2825 ;;		On exit  : 0/0
  2826 ;;		Unchanged: 0/0
  2827 ;; Data sizes:     COMMON   BANK0   BANK1   BANK2   BANK3   BANK4   BANK5   BANK6   BANK7   BANK8   BANK9  BANK10  BANK1
      +1  BANK12  BANK13  BANK14  BANK15  BANK16  BANK17  BANK18  BANK19  BANK20  BANK21  BANK22  BANK23  BANK24  BANK25  BANK2
      +6  BANK27  BANK28  BANK29  BANK30  BANK31  BANK32  BANK33  BANK34  BANK35  BANK36  BANK37  BANK38  BANK39  BANK40  BANK4
      +1  BANK42  BANK43  BANK44  BANK45  BANK46  BANK47  BANK48  BANK49  BANK50
  2828 ;;      Params:         0       0       0       0       0       0       0       0       0       0       0       0       
      +0       0       0       0       0       0       0       0       0       0       0       0       0       0       0       
      +0       0       0       0       0       0       0       0       0       0       0       0       0       0       0       
      +0       0       0       0       0       0       0       0       0       0
  2829 ;;      Locals:         0       0       0       0       0       0       0       0       0       0       0       0       
      +0       0       0       0       0       0       0       0       0       0       0       0       0       0       0       
      +0       0       0       0       0       0       0       0       0       0       0       0       0       0       0       
      +0       0       0       0       0       0       0       0       0       0
  2830 ;;      Temps:          0       0       0       0       0       0       0       0       0       0       0       0       
      +0       0       0       0       0       0       0       0       0       0       0       0       0       0       0       
      +0       0       0       0       0       0       0       0       0       0       0       0       0       0       0       
      +0       0       0       0       0       0       0       0       0       0
  2831 ;;      Totals:         0       0       0       0       0       0       0       0       0       0       0       0       
      +0       0       0       0       0       0       0       0       0       0       0       0       0       0       0       
      +0       0       0       0       0       0       0       0       0       0       0       0       0       0       0       
      +0       0       0       0       0       0       0       0       0       0
  2832 ;;Total ram usage:        0 bytes
  2833 ;; Hardware stack levels used:    1
  2834 ;; Hardware stack levels required when called:    3
  2835 ;; This function calls:
  2836 ;;		_ADCC_Initialize
  2837 ;;		_OSCILLATOR_Initialize
  2838 ;;		_PIN_MANAGER_Initialize
  2839 ;; This function is called by:
  2840 ;;		_main
  2841 ;; This function uses a non-reentrant model
  2842 ;;
  2843                           
  2844                           
  2845                           ;psect for function _SYSTEM_Initialize
  2846  0075                     _SYSTEM_Initialize:	
  2847                           
  2848                           ;mcc.c: 85: PIN_MANAGER_Initialize();
  2849                           
  2850                           ;incstack = 0
  2851                           ; Regs used in _SYSTEM_Initialize: [wreg+status,2+status,0+pclath+cstack]
  2852  0075  3180  205F  3180   	fcall	_PIN_MANAGER_Initialize
  2853                           
  2854                           ;mcc.c: 86: OSCILLATOR_Initialize();
  2855  0078  3180  207E  3180   	fcall	_OSCILLATOR_Initialize
  2856                           
  2857                           ;mcc.c: 87: ADCC_Initialize();
  2858  007B  3180  2044         	fcall	_ADCC_Initialize
  2859  007D  0008               	return
  2860  007E                     __end_of_SYSTEM_Initialize:	
  2861                           
  2862                           	psect	text2
  2863  005F                     __ptext2:	
  2864 ;; *************** function _PIN_MANAGER_Initialize *****************
  2865 ;; Defined at:
  2866 ;;		line 49 in file "mcc_generated_files/pin_manager.c"
  2867 ;; Parameters:    Size  Location     Type
  2868 ;;		None
  2869 ;; Auto vars:     Size  Location     Type
  2870 ;;		None
  2871 ;; Return value:  Size  Location     Type
  2872 ;;                  1    wreg      void 
  2873 ;; Registers used:
  2874 ;;		wreg, status,2
  2875 ;; Tracked objects:
  2876 ;;		On entry : 0/0
  2877 ;;		On exit  : 0/0
  2878 ;;		Unchanged: 0/0
  2879 ;; Data sizes:     COMMON   BANK0   BANK1   BANK2   BANK3   BANK4   BANK5   BANK6   BANK7   BANK8   BANK9  BANK10  BANK1
      +1  BANK12  BANK13  BANK14  BANK15  BANK16  BANK17  BANK18  BANK19  BANK20  BANK21  BANK22  BANK23  BANK24  BANK25  BANK2
      +6  BANK27  BANK28  BANK29  BANK30  BANK31  BANK32  BANK33  BANK34  BANK35  BANK36  BANK37  BANK38  BANK39  BANK40  BANK4
      +1  BANK42  BANK43  BANK44  BANK45  BANK46  BANK47  BANK48  BANK49  BANK50
  2880 ;;      Params:         0       0       0       0       0       0       0       0       0       0       0       0       
      +0       0       0       0       0       0       0       0       0       0       0       0       0       0       0       
      +0       0       0       0       0       0       0       0       0       0       0       0       0       0       0       
      +0       0       0       0       0       0       0       0       0       0
  2881 ;;      Locals:         0       0       0       0       0       0       0       0       0       0       0       0       
      +0       0       0       0       0       0       0       0       0       0       0       0       0       0       0       
      +0       0       0       0       0       0       0       0       0       0       0       0       0       0       0       
      +0       0       0       0       0       0       0       0       0       0
  2882 ;;      Temps:          0       0       0       0       0       0       0       0       0       0       0       0       
      +0       0       0       0       0       0       0       0       0       0       0       0       0       0       0       
      +0       0       0       0       0       0       0       0       0       0       0       0       0       0       0       
      +0       0       0       0       0       0       0       0       0       0
  2883 ;;      Totals:         0       0       0       0       0       0       0       0       0       0       0       0       
      +0       0       0       0       0       0       0       0       0       0       0       0       0       0       0       
      +0       0       0       0       0       0       0       0       0       0       0       0       0       0       0       
      +0       0       0       0       0       0       0       0       0       0
  2884 ;;Total ram usage:        0 bytes
  2885 ;; Hardware stack levels used:    1
  2886 ;; Hardware stack levels required when called:    2
  2887 ;; This function calls:
  2888 ;;		Nothing
  2889 ;; This function is called by:
  2890 ;;		_SYSTEM_Initialize
  2891 ;; This function uses a non-reentrant model
  2892 ;;
  2893                           
  2894                           
  2895                           ;psect for function _PIN_MANAGER_Initialize
  2896  005F                     _PIN_MANAGER_Initialize:	
  2897                           
  2898                           ;pin_manager.c: 51: LATB = 0x0;
  2899                           
  2900                           ;incstack = 0
  2901                           ; Regs used in _PIN_MANAGER_Initialize: [wreg+status,2]
  2902  005F  0140               	movlb	0	; select bank0
  2903  0060  0197               	clrf	23	;volatile
  2904                           
  2905                           ;pin_manager.c: 52: LATA = 0x0;
  2906  0061  0196               	clrf	22	;volatile
  2907                           
  2908                           ;pin_manager.c: 53: LATC = 0x0;
  2909  0062  0198               	clrf	24	;volatile
  2910                           
  2911                           ;pin_manager.c: 54: WPUA = 0x0;
  2912  0063  017E               	movlb	62	; select bank62
  2913  0064  01B9               	clrf	57	;volatile
  2914                           
  2915                           ;pin_manager.c: 55: WPUB = 0x0;
  2916  0065  01C4               	clrf	68	;volatile
  2917                           
  2918                           ;pin_manager.c: 56: WPUC = 0x0;
  2919  0066  01CF               	clrf	79	;volatile
  2920                           
  2921                           ;pin_manager.c: 57: ANSELA = 0xFD;
  2922  0067  30FD               	movlw	253
  2923  0068  00B8               	movwf	56	;volatile
  2924                           
  2925                           ;pin_manager.c: 58: ANSELB = 0xFF;
  2926  0069  30FF               	movlw	255
  2927  006A  00C3               	movwf	67	;volatile
  2928                           
  2929                           ;pin_manager.c: 59: ANSELC = 0xFF;
  2930  006B  30FF               	movlw	255
  2931  006C  00CE               	movwf	78	;volatile
  2932                           
  2933                           ;pin_manager.c: 60: TRISB = 0xFF;
  2934  006D  30FF               	movlw	255
  2935  006E  0140               	movlb	0	; select bank0
  2936  006F  0092               	movwf	18	;volatile
  2937                           
  2938                           ;pin_manager.c: 61: TRISC = 0xFF;
  2939  0070  30FF               	movlw	255
  2940  0071  0093               	movwf	19	;volatile
  2941                           
  2942                           ;pin_manager.c: 62: TRISA = 0xFD;
  2943  0072  30FD               	movlw	253
  2944  0073  0091               	movwf	17	;volatile
  2945  0074  0008               	return
  2946  0075                     __end_of_PIN_MANAGER_Initialize:	
  2947                           
  2948                           	psect	text3
  2949  007E                     __ptext3:	
  2950 ;; *************** function _OSCILLATOR_Initialize *****************
  2951 ;; Defined at:
  2952 ;;		line 90 in file "mcc_generated_files/mcc.c"
  2953 ;; Parameters:    Size  Location     Type
  2954 ;;		None
  2955 ;; Auto vars:     Size  Location     Type
  2956 ;;		None
  2957 ;; Return value:  Size  Location     Type
  2958 ;;                  1    wreg      void 
  2959 ;; Registers used:
  2960 ;;		wreg, status,2
  2961 ;; Tracked objects:
  2962 ;;		On entry : 0/0
  2963 ;;		On exit  : 0/0
  2964 ;;		Unchanged: 0/0
  2965 ;; Data sizes:     COMMON   BANK0   BANK1   BANK2   BANK3   BANK4   BANK5   BANK6   BANK7   BANK8   BANK9  BANK10  BANK1
      +1  BANK12  BANK13  BANK14  BANK15  BANK16  BANK17  BANK18  BANK19  BANK20  BANK21  BANK22  BANK23  BANK24  BANK25  BANK2
      +6  BANK27  BANK28  BANK29  BANK30  BANK31  BANK32  BANK33  BANK34  BANK35  BANK36  BANK37  BANK38  BANK39  BANK40  BANK4
      +1  BANK42  BANK43  BANK44  BANK45  BANK46  BANK47  BANK48  BANK49  BANK50
  2966 ;;      Params:         0       0       0       0       0       0       0       0       0       0       0       0       
      +0       0       0       0       0       0       0       0       0       0       0       0       0       0       0       
      +0       0       0       0       0       0       0       0       0       0       0       0       0       0       0       
      +0       0       0       0       0       0       0       0       0       0
  2967 ;;      Locals:         0       0       0       0       0       0       0       0       0       0       0       0       
      +0       0       0       0       0       0       0       0       0       0       0       0       0       0       0       
      +0       0       0       0       0       0       0       0       0       0       0       0       0       0       0       
      +0       0       0       0       0       0       0       0       0       0
  2968 ;;      Temps:          0       0       0       0       0       0       0       0       0       0       0       0       
      +0       0       0       0       0       0       0       0       0       0       0       0       0       0       0       
      +0       0       0       0       0       0       0       0       0       0       0       0       0       0       0       
      +0       0       0       0       0       0       0       0       0       0
  2969 ;;      Totals:         0       0       0       0       0       0       0       0       0       0       0       0       
      +0       0       0       0       0       0       0       0       0       0       0       0       0       0       0       
      +0       0       0       0       0       0       0       0       0       0       0       0       0       0       0       
      +0       0       0       0       0       0       0       0       0       0
  2970 ;;Total ram usage:        0 bytes
  2971 ;; Hardware stack levels used:    1
  2972 ;; Hardware stack levels required when called:    2
  2973 ;; This function calls:
  2974 ;;		Nothing
  2975 ;; This function is called by:
  2976 ;;		_SYSTEM_Initialize
  2977 ;; This function uses a non-reentrant model
  2978 ;;
  2979                           
  2980                           
  2981                           ;psect for function _OSCILLATOR_Initialize
  2982  007E                     _OSCILLATOR_Initialize:	
  2983                           
  2984                           ;mcc.c: 93: OSCCON1 = 0x62;
  2985                           
  2986                           ;incstack = 0
  2987                           ; Regs used in _OSCILLATOR_Initialize: [wreg+status,2]
  2988  007E  3062               	movlw	98
  2989  007F  0151               	movlb	17	; select bank17
  2990  0080  008D               	movwf	13	;volatile
  2991                           
  2992                           ;mcc.c: 95: OSCCON3 = 0x00;
  2993  0081  018F               	clrf	15	;volatile
  2994                           
  2995                           ;mcc.c: 97: OSCEN = 0x00;
  2996  0082  0191               	clrf	17	;volatile
  2997                           
  2998                           ;mcc.c: 99: OSCFRQ = 0x00;
  2999  0083  0193               	clrf	19	;volatile
  3000                           
  3001                           ;mcc.c: 101: OSCSTAT = 0x00;
  3002  0084  0190               	clrf	16	;volatile
  3003                           
  3004                           ;mcc.c: 103: OSCTUNE = 0x00;
  3005  0085  0192               	clrf	18	;volatile
  3006  0086  0008               	return
  3007  0087                     __end_of_OSCILLATOR_Initialize:	
  3008                           
  3009                           	psect	text4
  3010  0044                     __ptext4:	
  3011 ;; *************** function _ADCC_Initialize *****************
  3012 ;; Defined at:
  3013 ;;		line 58 in file "mcc_generated_files/adcc.c"
  3014 ;; Parameters:    Size  Location     Type
  3015 ;;		None
  3016 ;; Auto vars:     Size  Location     Type
  3017 ;;		None
  3018 ;; Return value:  Size  Location     Type
  3019 ;;                  1    wreg      void 
  3020 ;; Registers used:
  3021 ;;		wreg, status,2
  3022 ;; Tracked objects:
  3023 ;;		On entry : 0/0
  3024 ;;		On exit  : 0/0
  3025 ;;		Unchanged: 0/0
  3026 ;; Data sizes:     COMMON   BANK0   BANK1   BANK2   BANK3   BANK4   BANK5   BANK6   BANK7   BANK8   BANK9  BANK10  BANK1
      +1  BANK12  BANK13  BANK14  BANK15  BANK16  BANK17  BANK18  BANK19  BANK20  BANK21  BANK22  BANK23  BANK24  BANK25  BANK2
      +6  BANK27  BANK28  BANK29  BANK30  BANK31  BANK32  BANK33  BANK34  BANK35  BANK36  BANK37  BANK38  BANK39  BANK40  BANK4
      +1  BANK42  BANK43  BANK44  BANK45  BANK46  BANK47  BANK48  BANK49  BANK50
  3027 ;;      Params:         0       0       0       0       0       0       0       0       0       0       0       0       
      +0       0       0       0       0       0       0       0       0       0       0       0       0       0       0       
      +0       0       0       0       0       0       0       0       0       0       0       0       0       0       0       
      +0       0       0       0       0       0       0       0       0       0
  3028 ;;      Locals:         0       0       0       0       0       0       0       0       0       0       0       0       
      +0       0       0       0       0       0       0       0       0       0       0       0       0       0       0       
      +0       0       0       0       0       0       0       0       0       0       0       0       0       0       0       
      +0       0       0       0       0       0       0       0       0       0
  3029 ;;      Temps:          0       0       0       0       0       0       0       0       0       0       0       0       
      +0       0       0       0       0       0       0       0       0       0       0       0       0       0       0       
      +0       0       0       0       0       0       0       0       0       0       0       0       0       0       0       
      +0       0       0       0       0       0       0       0       0       0
  3030 ;;      Totals:         0       0       0       0       0       0       0       0       0       0       0       0       
      +0       0       0       0       0       0       0       0       0       0       0       0       0       0       0       
      +0       0       0       0       0       0       0       0       0       0       0       0       0       0       0       
      +0       0       0       0       0       0       0       0       0       0
  3031 ;;Total ram usage:        0 bytes
  3032 ;; Hardware stack levels used:    1
  3033 ;; Hardware stack levels required when called:    2
  3034 ;; This function calls:
  3035 ;;		Nothing
  3036 ;; This function is called by:
  3037 ;;		_SYSTEM_Initialize
  3038 ;;		_main
  3039 ;; This function uses a non-reentrant model
  3040 ;;
  3041                           
  3042                           
  3043                           ;psect for function _ADCC_Initialize
  3044  0044                     _ADCC_Initialize:	
  3045                           
  3046                           ;adcc.c: 62: ADCON1 = 0x00;
  3047                           
  3048                           ;incstack = 0
  3049                           ; Regs used in _ADCC_Initialize: [wreg+status,2]
  3050  0044  0141               	movlb	1	; select bank1
  3051  0045  0194               	clrf	20	;volatile
  3052                           
  3053                           ;adcc.c: 64: ADCON2 = 0x00;
  3054  0046  0195               	clrf	21	;volatile
  3055                           
  3056                           ;adcc.c: 66: ADCON3 = 0x00;
  3057  0047  0196               	clrf	22	;volatile
  3058                           
  3059                           ;adcc.c: 68: ADACT = 0x00;
  3060  0048  0199               	clrf	25	;volatile
  3061                           
  3062                           ;adcc.c: 70: ADSTAT = 0x00;
  3063  0049  0197               	clrf	23	;volatile
  3064                           
  3065                           ;adcc.c: 72: ADCLK = 0x00;
  3066  004A  0198               	clrf	24	;volatile
  3067                           
  3068                           ;adcc.c: 74: ADREF = 0x00;
  3069  004B  019A               	clrf	26	;volatile
  3070                           
  3071                           ;adcc.c: 76: ADCAP = 0x00;
  3072  004C  019B               	clrf	27	;volatile
  3073                           
  3074                           ;adcc.c: 78: ADPRE = 0x00;
  3075  004D  019C               	clrf	28	;volatile
  3076                           
  3077                           ;adcc.c: 80: ADACQ = 0x00;
  3078  004E  019D               	clrf	29	;volatile
  3079                           
  3080                           ;adcc.c: 82: ADPCH = 0x00;
  3081  004F  019E               	clrf	30	;volatile
  3082                           
  3083                           ;adcc.c: 84: ADRPT = 0x00;
  3084  0050  0142               	movlb	2	; select bank2
  3085  0051  018D               	clrf	13	;volatile
  3086                           
  3087                           ;adcc.c: 86: ADLTHL = 0x00;
  3088  0052  018E               	clrf	14	;volatile
  3089                           
  3090                           ;adcc.c: 88: ADLTHH = 0x00;
  3091  0053  018F               	clrf	15	;volatile
  3092                           
  3093                           ;adcc.c: 90: ADUTHL = 0x00;
  3094  0054  0190               	clrf	16	;volatile
  3095                           
  3096                           ;adcc.c: 92: ADUTHH = 0x00;
  3097  0055  0191               	clrf	17	;volatile
  3098                           
  3099                           ;adcc.c: 94: ADSTPTL = 0x00;
  3100  0056  0192               	clrf	18	;volatile
  3101                           
  3102                           ;adcc.c: 96: ADSTPTH = 0x00;
  3103  0057  0193               	clrf	19	;volatile
  3104                           
  3105                           ;adcc.c: 99: ADCON0 = 0x85;
  3106  0058  3085               	movlw	133
  3107  0059  0141               	movlb	1	; select bank1
  3108  005A  0093               	movwf	19	;volatile
  3109                           
  3110                           ;adcc.c: 102: PIR1bits.ADIF = 0;
  3111  005B  014E               	movlb	14	; select bank14
  3112  005C  100D               	bcf	13,0	;volatile
  3113                           
  3114                           ;adcc.c: 104: PIE1bits.ADIE = 1;
  3115  005D  1417               	bsf	23,0	;volatile
  3116  005E  0008               	return
  3117  005F                     __end_of_ADCC_Initialize:	
  3118                           
  3119                           	psect	text5
  3120  0087                     __ptext5:	
  3121 ;; *************** function _ADCC_StartConversion *****************
  3122 ;; Defined at:
  3123 ;;		line 108 in file "mcc_generated_files/adcc.c"
  3124 ;; Parameters:    Size  Location     Type
  3125 ;;  channel         1    wreg     enum E13465
  3126 ;; Auto vars:     Size  Location     Type
  3127 ;;  channel         1    1[COMMON] enum E13465
  3128 ;; Return value:  Size  Location     Type
  3129 ;;                  1    wreg      void 
  3130 ;; Registers used:
  3131 ;;		wreg
  3132 ;; Tracked objects:
  3133 ;;		On entry : 0/0
  3134 ;;		On exit  : 0/0
  3135 ;;		Unchanged: 0/0
  3136 ;; Data sizes:     COMMON   BANK0   BANK1   BANK2   BANK3   BANK4   BANK5   BANK6   BANK7   BANK8   BANK9  BANK10  BANK1
      +1  BANK12  BANK13  BANK14  BANK15  BANK16  BANK17  BANK18  BANK19  BANK20  BANK21  BANK22  BANK23  BANK24  BANK25  BANK2
      +6  BANK27  BANK28  BANK29  BANK30  BANK31  BANK32  BANK33  BANK34  BANK35  BANK36  BANK37  BANK38  BANK39  BANK40  BANK4
      +1  BANK42  BANK43  BANK44  BANK45  BANK46  BANK47  BANK48  BANK49  BANK50
  3137 ;;      Params:         0       0       0       0       0       0       0       0       0       0       0       0       
      +0       0       0       0       0       0       0       0       0       0       0       0       0       0       0       
      +0       0       0       0       0       0       0       0       0       0       0       0       0       0       0       
      +0       0       0       0       0       0       0       0       0       0
  3138 ;;      Locals:         1       0       0       0       0       0       0       0       0       0       0       0       
      +0       0       0       0       0       0       0       0       0       0       0       0       0       0       0       
      +0       0       0       0       0       0       0       0       0       0       0       0       0       0       0       
      +0       0       0       0       0       0       0       0       0       0
  3139 ;;      Temps:          0       0       0       0       0       0       0       0       0       0       0       0       
      +0       0       0       0       0       0       0       0       0       0       0       0       0       0       0       
      +0       0       0       0       0       0       0       0       0       0       0       0       0       0       0       
      +0       0       0       0       0       0       0       0       0       0
  3140 ;;      Totals:         1       0       0       0       0       0       0       0       0       0       0       0       
      +0       0       0       0       0       0       0       0       0       0       0       0       0       0       0       
      +0       0       0       0       0       0       0       0       0       0       0       0       0       0       0       
      +0       0       0       0       0       0       0       0       0       0
  3141 ;;Total ram usage:        1 bytes
  3142 ;; Hardware stack levels used:    1
  3143 ;; Hardware stack levels required when called:    2
  3144 ;; This function calls:
  3145 ;;		Nothing
  3146 ;; This function is called by:
  3147 ;;		_main
  3148 ;; This function uses a non-reentrant model
  3149 ;;
  3150                           
  3151                           
  3152                           ;psect for function _ADCC_StartConversion
  3153  0087                     _ADCC_StartConversion:	
  3154                           
  3155                           ;incstack = 0
  3156                           ; Regs used in _ADCC_StartConversion: [wreg]
  3157                           ;ADCC_StartConversion@channel stored from wreg
  3158  0087  00F1               	movwf	ADCC_StartConversion@channel
  3159                           
  3160                           ;adcc.c: 111: ADPCH = channel;
  3161  0088  0871               	movf	ADCC_StartConversion@channel,w
  3162  0089  0141               	movlb	1	; select bank1
  3163  008A  009E               	movwf	30	;volatile
  3164                           
  3165                           ;adcc.c: 114: ADCON0bits.ADON = 1;
  3166  008B  1793               	bsf	19,7	;volatile
  3167                           
  3168                           ;adcc.c: 117: ADCON0bits.ADGO = 1;
  3169  008C  1413               	bsf	19,0	;volatile
  3170  008D  0008               	return
  3171  008E                     __end_of_ADCC_StartConversion:	
  3172                           
  3173                           	psect	text6
  3174  008E                     __ptext6:	
  3175 ;; *************** function _ADCC_GetConversionResult *****************
  3176 ;; Defined at:
  3177 ;;		line 126 in file "mcc_generated_files/adcc.c"
  3178 ;; Parameters:    Size  Location     Type
  3179 ;;		None
  3180 ;; Auto vars:     Size  Location     Type
  3181 ;;		None
  3182 ;; Return value:  Size  Location     Type
  3183 ;;                  2    1[COMMON] unsigned int 
  3184 ;; Registers used:
  3185 ;;		wreg
  3186 ;; Tracked objects:
  3187 ;;		On entry : 0/0
  3188 ;;		On exit  : 0/0
  3189 ;;		Unchanged: 0/0
  3190 ;; Data sizes:     COMMON   BANK0   BANK1   BANK2   BANK3   BANK4   BANK5   BANK6   BANK7   BANK8   BANK9  BANK10  BANK1
      +1  BANK12  BANK13  BANK14  BANK15  BANK16  BANK17  BANK18  BANK19  BANK20  BANK21  BANK22  BANK23  BANK24  BANK25  BANK2
      +6  BANK27  BANK28  BANK29  BANK30  BANK31  BANK32  BANK33  BANK34  BANK35  BANK36  BANK37  BANK38  BANK39  BANK40  BANK4
      +1  BANK42  BANK43  BANK44  BANK45  BANK46  BANK47  BANK48  BANK49  BANK50
  3191 ;;      Params:         2       0       0       0       0       0       0       0       0       0       0       0       
      +0       0       0       0       0       0       0       0       0       0       0       0       0       0       0       
      +0       0       0       0       0       0       0       0       0       0       0       0       0       0       0       
      +0       0       0       0       0       0       0       0       0       0
  3192 ;;      Locals:         0       0       0       0       0       0       0       0       0       0       0       0       
      +0       0       0       0       0       0       0       0       0       0       0       0       0       0       0       
      +0       0       0       0       0       0       0       0       0       0       0       0       0       0       0       
      +0       0       0       0       0       0       0       0       0       0
  3193 ;;      Temps:          0       0       0       0       0       0       0       0       0       0       0       0       
      +0       0       0       0       0       0       0       0       0       0       0       0       0       0       0       
      +0       0       0       0       0       0       0       0       0       0       0       0       0       0       0       
      +0       0       0       0       0       0       0       0       0       0
  3194 ;;      Totals:         2       0       0       0       0       0       0       0       0       0       0       0       
      +0       0       0       0       0       0       0       0       0       0       0       0       0       0       0       
      +0       0       0       0       0       0       0       0       0       0       0       0       0       0       0       
      +0       0       0       0       0       0       0       0       0       0
  3195 ;;Total ram usage:        2 bytes
  3196 ;; Hardware stack levels used:    1
  3197 ;; Hardware stack levels required when called:    2
  3198 ;; This function calls:
  3199 ;;		Nothing
  3200 ;; This function is called by:
  3201 ;;		_main
  3202 ;; This function uses a non-reentrant model
  3203 ;;
  3204                           
  3205                           
  3206                           ;psect for function _ADCC_GetConversionResult
  3207  008E                     _ADCC_GetConversionResult:	
  3208                           
  3209                           ;adcc.c: 129: return ((ADRESH << 8) + ADRESL);
  3210                           
  3211                           ;incstack = 0
  3212                           ; Regs used in _ADCC_GetConversionResult: [wreg]
  3213  008E  0141               	movlb	1	; select bank1
  3214  008F  080D               	movf	13,w	;volatile
  3215  0090  00F2               	movwf	?_ADCC_GetConversionResult+1
  3216  0091  080C               	movf	12,w	;volatile
  3217  0092  00F1               	movwf	?_ADCC_GetConversionResult
  3218  0093  0008               	return
  3219  0094                     __end_of_ADCC_GetConversionResult:	
  3220                           
  3221                           	psect	intentry
  3222  0004                     __pintentry:	
  3223 ;; *************** function _INTERRUPT_InterruptManager *****************
  3224 ;; Defined at:
  3225 ;;		line 51 in file "mcc_generated_files/interrupt_manager.c"
  3226 ;; Parameters:    Size  Location     Type
  3227 ;;		None
  3228 ;; Auto vars:     Size  Location     Type
  3229 ;;		None
  3230 ;; Return value:  Size  Location     Type
  3231 ;;                  1    wreg      void 
  3232 ;; Registers used:
  3233 ;;		status,2, status,0, pclath, cstack
  3234 ;; Tracked objects:
  3235 ;;		On entry : 0/0
  3236 ;;		On exit  : 0/0
  3237 ;;		Unchanged: 0/0
  3238 ;; Data sizes:     COMMON   BANK0   BANK1   BANK2   BANK3   BANK4   BANK5   BANK6   BANK7   BANK8   BANK9  BANK10  BANK1
      +1  BANK12  BANK13  BANK14  BANK15  BANK16  BANK17  BANK18  BANK19  BANK20  BANK21  BANK22  BANK23  BANK24  BANK25  BANK2
      +6  BANK27  BANK28  BANK29  BANK30  BANK31  BANK32  BANK33  BANK34  BANK35  BANK36  BANK37  BANK38  BANK39  BANK40  BANK4
      +1  BANK42  BANK43  BANK44  BANK45  BANK46  BANK47  BANK48  BANK49  BANK50
  3239 ;;      Params:         0       0       0       0       0       0       0       0       0       0       0       0       
      +0       0       0       0       0       0       0       0       0       0       0       0       0       0       0       
      +0       0       0       0       0       0       0       0       0       0       0       0       0       0       0       
      +0       0       0       0       0       0       0       0       0       0
  3240 ;;      Locals:         0       0       0       0       0       0       0       0       0       0       0       0       
      +0       0       0       0       0       0       0       0       0       0       0       0       0       0       0       
      +0       0       0       0       0       0       0       0       0       0       0       0       0       0       0       
      +0       0       0       0       0       0       0       0       0       0
  3241 ;;      Temps:          1       0       0       0       0       0       0       0       0       0       0       0       
      +0       0       0       0       0       0       0       0       0       0       0       0       0       0       0       
      +0       0       0       0       0       0       0       0       0       0       0       0       0       0       0       
      +0       0       0       0       0       0       0       0       0       0
  3242 ;;      Totals:         1       0       0       0       0       0       0       0       0       0       0       0       
      +0       0       0       0       0       0       0       0       0       0       0       0       0       0       0       
      +0       0       0       0       0       0       0       0       0       0       0       0       0       0       0       
      +0       0       0       0       0       0       0       0       0       0
  3243 ;;Total ram usage:        1 bytes
  3244 ;; Hardware stack levels used:    1
  3245 ;; Hardware stack levels required when called:    1
  3246 ;; This function calls:
  3247 ;;		_ADCC_ISR
  3248 ;; This function is called by:
  3249 ;;		Interrupt level 1
  3250 ;; This function uses a non-reentrant model
  3251 ;;
  3252                           
  3253  0004                     _INTERRUPT_InterruptManager:	
  3254                           
  3255                           ;incstack = 0
  3256  0004  147E               	bsf	126,0	;set compiler interrupt flag (level 1)
  3257                           
  3258                           ; Regs used in _INTERRUPT_InterruptManager: [status,2+status,0+pclath+cstack]
  3259  0005  3180               	pagesel	$
  3260  0006  0140               	movlb	0	; select bank0
  3261  0007  087F               	movf	127,w
  3262  0008  00F0               	movwf	??_INTERRUPT_InterruptManager
  3263                           
  3264                           ;interrupt_manager.c: 54: if(INTCONbits.PEIE == 1 && PIE1bits.ADIE == 1 && PIR1bits.ADIF
      +                           == 1)
  3265  0009  1F0B               	btfss	11,6	;volatile
  3266  000A  2811               	goto	i1l198
  3267  000B  014E               	movlb	14	; select bank14
  3268  000C  1817               	btfsc	23,0	;volatile
  3269  000D  1C0D               	btfss	13,0	;volatile
  3270  000E  2811               	goto	i1l198
  3271                           
  3272                           ;interrupt_manager.c: 55: {
  3273                           ;interrupt_manager.c: 56: ADCC_ISR();
  3274  000F  3180  2094         	fcall	_ADCC_ISR
  3275  0011                     i1l198:	
  3276                           ;interrupt_manager.c: 58: else
  3277                           ;interrupt_manager.c: 59: {
  3278                           
  3279                           ;interrupt_manager.c: 57: }
  3280                           
  3281  0011  0870               	movf	??_INTERRUPT_InterruptManager,w
  3282  0012  0140               	movlb	0	; select bank0
  3283  0013  00FF               	movwf	127
  3284  0014  107E               	bcf	126,0	;clear compiler interrupt flag (level 1)
  3285  0015  0009               	retfie
  3286  0016                     __end_of_INTERRUPT_InterruptManager:	
  3287                           
  3288                           	psect	text8
  3289  0094                     __ptext8:	
  3290 ;; *************** function _ADCC_ISR *****************
  3291 ;; Defined at:
  3292 ;;		line 291 in file "mcc_generated_files/adcc.c"
  3293 ;; Parameters:    Size  Location     Type
  3294 ;;		None
  3295 ;; Auto vars:     Size  Location     Type
  3296 ;;		None
  3297 ;; Return value:  Size  Location     Type
  3298 ;;                  1    wreg      void 
  3299 ;; Registers used:
  3300 ;;		None
  3301 ;; Tracked objects:
  3302 ;;		On entry : 0/0
  3303 ;;		On exit  : 0/0
  3304 ;;		Unchanged: 0/0
  3305 ;; Data sizes:     COMMON   BANK0   BANK1   BANK2   BANK3   BANK4   BANK5   BANK6   BANK7   BANK8   BANK9  BANK10  BANK1
      +1  BANK12  BANK13  BANK14  BANK15  BANK16  BANK17  BANK18  BANK19  BANK20  BANK21  BANK22  BANK23  BANK24  BANK25  BANK2
      +6  BANK27  BANK28  BANK29  BANK30  BANK31  BANK32  BANK33  BANK34  BANK35  BANK36  BANK37  BANK38  BANK39  BANK40  BANK4
      +1  BANK42  BANK43  BANK44  BANK45  BANK46  BANK47  BANK48  BANK49  BANK50
  3306 ;;      Params:         0       0       0       0       0       0       0       0       0       0       0       0       
      +0       0       0       0       0       0       0       0       0       0       0       0       0       0       0       
      +0       0       0       0       0       0       0       0       0       0       0       0       0       0       0       
      +0       0       0       0       0       0       0       0       0       0
  3307 ;;      Locals:         0       0       0       0       0       0       0       0       0       0       0       0       
      +0       0       0       0       0       0       0       0       0       0       0       0       0       0       0       
      +0       0       0       0       0       0       0       0       0       0       0       0       0       0       0       
      +0       0       0       0       0       0       0       0       0       0
  3308 ;;      Temps:          0       0       0       0       0       0       0       0       0       0       0       0       
      +0       0       0       0       0       0       0       0       0       0       0       0       0       0       0       
      +0       0       0       0       0       0       0       0       0       0       0       0       0       0       0       
      +0       0       0       0       0       0       0       0       0       0
  3309 ;;      Totals:         0       0       0       0       0       0       0       0       0       0       0       0       
      +0       0       0       0       0       0       0       0       0       0       0       0       0       0       0       
      +0       0       0       0       0       0       0       0       0       0       0       0       0       0       0       
      +0       0       0       0       0       0       0       0       0       0
  3310 ;;Total ram usage:        0 bytes
  3311 ;; Hardware stack levels used:    1
  3312 ;; This function calls:
  3313 ;;		Nothing
  3314 ;; This function is called by:
  3315 ;;		_INTERRUPT_InterruptManager
  3316 ;; This function uses a non-reentrant model
  3317 ;;
  3318                           
  3319                           
  3320                           ;psect for function _ADCC_ISR
  3321  0094                     _ADCC_ISR:	
  3322                           
  3323                           ;adcc.c: 294: PIR1bits.ADIF = 0;
  3324                           
  3325                           ;incstack = 0
  3326                           ; Regs used in _ADCC_ISR: []
  3327  0094  014E               	movlb	14	; select bank14
  3328  0095  100D               	bcf	13,0	;volatile
  3329  0096  0008               	return
  3330  0097                     __end_of_ADCC_ISR:	
  3331  007E                     btemp	set	126	;btemp
  3332  007E                     int$flags	set	126
  3333  007E                     wtemp	set	126
  3334  007E                     wtemp0	set	126
  3335  0080                     wtemp1	set	128
  3336  0082                     wtemp2	set	130
  3337  0084                     wtemp3	set	132
  3338  0086                     wtemp4	set	134
  3339  0088                     wtemp5	set	136
  3340  007F                     wtemp6	set	127
  3341  007E                     ttemp	set	126
  3342  007E                     ttemp0	set	126
  3343  0081                     ttemp1	set	129
  3344  0084                     ttemp2	set	132
  3345  0087                     ttemp3	set	135
  3346  007F                     ttemp4	set	127
  3347  007E                     ltemp	set	126
  3348  007E                     ltemp0	set	126
  3349  0082                     ltemp1	set	130
  3350  0086                     ltemp2	set	134
  3351  0080                     ltemp3	set	128


Data Sizes:
    Strings     0
    Constant    0
    Data        0
    BSS         0
    Persistent  0
    Stack       0

Auto Spaces:
    Space          Size  Autos    Used
    COMMON           14      4       4
    BANK0            80      0       0
    BANK1            80      0       0
    BANK2            80      0       0
    BANK3            80      0       0
    BANK4            80      0       0
    BANK5            80      0       0
    BANK6            80      0       0
    BANK7            80      0       0
    BANK8            80      0       0
    BANK9            80      0       0
    BANK10           80      0       0
    BANK11           80      0       0
    BANK12           80      0       0
    BANK13           80      0       0
    BANK14           80      0       0
    BANK15           80      0       0
    BANK16           80      0       0
    BANK17           80      0       0
    BANK18           80      0       0
    BANK19           80      0       0
    BANK20           80      0       0
    BANK21           80      0       0
    BANK22           80      0       0
    BANK23           80      0       0
    BANK24           80      0       0
    BANK25           80      0       0
    BANK26           80      0       0
    BANK27           80      0       0
    BANK28           80      0       0
    BANK29           80      0       0
    BANK30           80      0       0
    BANK31           80      0       0
    BANK32           80      0       0
    BANK33           80      0       0
    BANK34           80      0       0
    BANK35           80      0       0
    BANK36           80      0       0
    BANK37           80      0       0
    BANK38           80      0       0
    BANK39           80      0       0
    BANK40           80      0       0
    BANK41           80      0       0
    BANK42           80      0       0
    BANK43           80      0       0
    BANK44           80      0       0
    BANK45           80      0       0
    BANK46           80      0       0
    BANK47           80      0       0
    BANK48           80      0       0
    BANK49           80      0       0
    BANK50           80      0       0

Pointer List with Targets:

    None.

Critical Paths under _main in COMMON

    _main->_ADCC_GetConversionResult

Critical Paths under _INTERRUPT_InterruptManager in COMMON

    None.

Critical Paths under _main in BANK0

    None.

Critical Paths under _INTERRUPT_InterruptManager in BANK0

    None.

Critical Paths under _main in BANK1

    None.

Critical Paths under _INTERRUPT_InterruptManager in BANK1

    None.

Critical Paths under _main in BANK2

    None.

Critical Paths under _INTERRUPT_InterruptManager in BANK2

    None.

Critical Paths under _main in BANK3

    None.

Critical Paths under _INTERRUPT_InterruptManager in BANK3

    None.

Critical Paths under _main in BANK4

    None.

Critical Paths under _INTERRUPT_InterruptManager in BANK4

    None.

Critical Paths under _main in BANK5

    None.

Critical Paths under _INTERRUPT_InterruptManager in BANK5

    None.

Critical Paths under _main in BANK6

    None.

Critical Paths under _INTERRUPT_InterruptManager in BANK6

    None.

Critical Paths under _main in BANK7

    None.

Critical Paths under _INTERRUPT_InterruptManager in BANK7

    None.

Critical Paths under _main in BANK8

    None.

Critical Paths under _INTERRUPT_InterruptManager in BANK8

    None.

Critical Paths under _main in BANK9

    None.

Critical Paths under _INTERRUPT_InterruptManager in BANK9

    None.

Critical Paths under _main in BANK10

    None.

Critical Paths under _INTERRUPT_InterruptManager in BANK10

    None.

Critical Paths under _main in BANK11

    None.

Critical Paths under _INTERRUPT_InterruptManager in BANK11

    None.

Critical Paths under _main in BANK12

    None.

Critical Paths under _INTERRUPT_InterruptManager in BANK12

    None.

Critical Paths under _main in BANK13

    None.

Critical Paths under _INTERRUPT_InterruptManager in BANK13

    None.

Critical Paths under _main in BANK14

    None.

Critical Paths under _INTERRUPT_InterruptManager in BANK14

    None.

Critical Paths under _main in BANK15

    None.

Critical Paths under _INTERRUPT_InterruptManager in BANK15

    None.

Critical Paths under _main in BANK16

    None.

Critical Paths under _INTERRUPT_InterruptManager in BANK16

    None.

Critical Paths under _main in BANK17

    None.

Critical Paths under _INTERRUPT_InterruptManager in BANK17

    None.

Critical Paths under _main in BANK18

    None.

Critical Paths under _INTERRUPT_InterruptManager in BANK18

    None.

Critical Paths under _main in BANK19

    None.

Critical Paths under _INTERRUPT_InterruptManager in BANK19

    None.

Critical Paths under _main in BANK20

    None.

Critical Paths under _INTERRUPT_InterruptManager in BANK20

    None.

Critical Paths under _main in BANK21

    None.

Critical Paths under _INTERRUPT_InterruptManager in BANK21

    None.

Critical Paths under _main in BANK22

    None.

Critical Paths under _INTERRUPT_InterruptManager in BANK22

    None.

Critical Paths under _main in BANK23

    None.

Critical Paths under _INTERRUPT_InterruptManager in BANK23

    None.

Critical Paths under _main in BANK24

    None.

Critical Paths under _INTERRUPT_InterruptManager in BANK24

    None.

Critical Paths under _main in BANK25

    None.

Critical Paths under _INTERRUPT_InterruptManager in BANK25

    None.

Critical Paths under _main in BANK26

    None.

Critical Paths under _INTERRUPT_InterruptManager in BANK26

    None.

Critical Paths under _main in BANK27

    None.

Critical Paths under _INTERRUPT_InterruptManager in BANK27

    None.

Critical Paths under _main in BANK28

    None.

Critical Paths under _INTERRUPT_InterruptManager in BANK28

    None.

Critical Paths under _main in BANK29

    None.

Critical Paths under _INTERRUPT_InterruptManager in BANK29

    None.

Critical Paths under _main in BANK30

    None.

Critical Paths under _INTERRUPT_InterruptManager in BANK30

    None.

Critical Paths under _main in BANK31

    None.

Critical Paths under _INTERRUPT_InterruptManager in BANK31

    None.

Critical Paths under _main in BANK32

    None.

Critical Paths under _INTERRUPT_InterruptManager in BANK32

    None.

Critical Paths under _main in BANK33

    None.

Critical Paths under _INTERRUPT_InterruptManager in BANK33

    None.

Critical Paths under _main in BANK34

    None.

Critical Paths under _INTERRUPT_InterruptManager in BANK34

    None.

Critical Paths under _main in BANK35

    None.

Critical Paths under _INTERRUPT_InterruptManager in BANK35

    None.

Critical Paths under _main in BANK36

    None.

Critical Paths under _INTERRUPT_InterruptManager in BANK36

    None.

Critical Paths under _main in BANK37

    None.

Critical Paths under _INTERRUPT_InterruptManager in BANK37

    None.

Critical Paths under _main in BANK38

    None.

Critical Paths under _INTERRUPT_InterruptManager in BANK38

    None.

Critical Paths under _main in BANK39

    None.

Critical Paths under _INTERRUPT_InterruptManager in BANK39

    None.

Critical Paths under _main in BANK40

    None.

Critical Paths under _INTERRUPT_InterruptManager in BANK40

    None.

Critical Paths under _main in BANK41

    None.

Critical Paths under _INTERRUPT_InterruptManager in BANK41

    None.

Critical Paths under _main in BANK42

    None.

Critical Paths under _INTERRUPT_InterruptManager in BANK42

    None.

Critical Paths under _main in BANK43

    None.

Critical Paths under _INTERRUPT_InterruptManager in BANK43

    None.

Critical Paths under _main in BANK44

    None.

Critical Paths under _INTERRUPT_InterruptManager in BANK44

    None.

Critical Paths under _main in BANK45

    None.

Critical Paths under _INTERRUPT_InterruptManager in BANK45

    None.

Critical Paths under _main in BANK46

    None.

Critical Paths under _INTERRUPT_InterruptManager in BANK46

    None.

Critical Paths under _main in BANK47

    None.

Critical Paths under _INTERRUPT_InterruptManager in BANK47

    None.

Critical Paths under _main in BANK48

    None.

Critical Paths under _INTERRUPT_InterruptManager in BANK48

    None.

Critical Paths under _main in BANK49

    None.

Critical Paths under _INTERRUPT_InterruptManager in BANK49

    None.

Critical Paths under _main in BANK50

    None.

Critical Paths under _INTERRUPT_InterruptManager in BANK50

    None.

Call Graph Tables:

 ---------------------------------------------------------------------------------
 (Depth) Function   	        Calls       Base Space   Used Autos Params    Refs
 ---------------------------------------------------------------------------------
 (0) _main                                                 1     1      0      15
                                              3 COMMON     1     1      0
           _ADCC_GetConversionResult
                    _ADCC_Initialize
               _ADCC_StartConversion
                  _SYSTEM_Initialize
 ---------------------------------------------------------------------------------
 (1) _SYSTEM_Initialize                                    0     0      0       0
                    _ADCC_Initialize
              _OSCILLATOR_Initialize
             _PIN_MANAGER_Initialize
 ---------------------------------------------------------------------------------
 (2) _PIN_MANAGER_Initialize                               0     0      0       0
 ---------------------------------------------------------------------------------
 (2) _OSCILLATOR_Initialize                                0     0      0       0
 ---------------------------------------------------------------------------------
 (2) _ADCC_Initialize                                      0     0      0       0
 ---------------------------------------------------------------------------------
 (1) _ADCC_StartConversion                                 1     1      0      15
                                              1 COMMON     1     1      0
 ---------------------------------------------------------------------------------
 (1) _ADCC_GetConversionResult                             2     0      2       0
                                              1 COMMON     2     0      2
 ---------------------------------------------------------------------------------
 Estimated maximum stack depth 2
 ---------------------------------------------------------------------------------
 (Depth) Function   	        Calls       Base Space   Used Autos Params    Refs
 ---------------------------------------------------------------------------------
 (3) _INTERRUPT_InterruptManager                           1     1      0       0
                                              0 COMMON     1     1      0
                           _ADCC_ISR
 ---------------------------------------------------------------------------------
 (4) _ADCC_ISR                                             0     0      0       0
 ---------------------------------------------------------------------------------
 Estimated maximum stack depth 4
 ---------------------------------------------------------------------------------

 Call Graph Graphs:

 _main (ROOT)
   _ADCC_GetConversionResult
   _ADCC_Initialize
   _ADCC_StartConversion
   _SYSTEM_Initialize
     _ADCC_Initialize
     _OSCILLATOR_Initialize
     _PIN_MANAGER_Initialize

 _INTERRUPT_InterruptManager (ROOT)
   _ADCC_ISR

 Address spaces:
Name               Size   Autos  Total    Cost      Usage
BIGRAM             FF0      0       0       0        0.0%
EEDATA             100      0       0       0        0.0%
NULL                 0      0       0       0        0.0%
CODE                 0      0       0       0        0.0%
BITCOMMON            E      0       0       1        0.0%
BITSFR0              0      0       0       1        0.0%
SFR0                 0      0       0       1        0.0%
COMMON               E      4       4       2       28.6%
BITSFR1              0      0       0       2        0.0%
SFR1                 0      0       0       2        0.0%
BITSFR2              0      0       0       3        0.0%
SFR2                 0      0       0       3        0.0%
STACK                0      0       0       3        0.0%
BITBANK0            50      0       0       4        0.0%
BITSFR3              0      0       0       4        0.0%
SFR3                 0      0       0       4        0.0%
BANK0               50      0       0       5        0.0%
BITSFR4              0      0       0       5        0.0%
SFR4                 0      0       0       5        0.0%
BITBANK1            50      0       0       6        0.0%
BITSFR5              0      0       0       6        0.0%
SFR5                 0      0       0       6        0.0%
BANK1               50      0       0       7        0.0%
BITSFR6              0      0       0       7        0.0%
SFR6                 0      0       0       7        0.0%
BITBANK2            50      0       0       8        0.0%
BITSFR7              0      0       0       8        0.0%
SFR7                 0      0       0       8        0.0%
BANK2               50      0       0       9        0.0%
BITSFR8              0      0       0       9        0.0%
SFR8                 0      0       0       9        0.0%
BITBANK3            50      0       0      10        0.0%
BITSFR9              0      0       0      10        0.0%
SFR9                 0      0       0      10        0.0%
BANK3               50      0       0      11        0.0%
BITSFR10             0      0       0      11        0.0%
SFR10                0      0       0      11        0.0%
BITBANK4            50      0       0      12        0.0%
BITSFR11             0      0       0      12        0.0%
SFR11                0      0       0      12        0.0%
BANK4               50      0       0      13        0.0%
BITSFR12             0      0       0      13        0.0%
SFR12                0      0       0      13        0.0%
BITBANK5            50      0       0      14        0.0%
BITSFR13             0      0       0      14        0.0%
SFR13                0      0       0      14        0.0%
BANK5               50      0       0      15        0.0%
BITSFR14             0      0       0      15        0.0%
SFR14                0      0       0      15        0.0%
BITBANK6            50      0       0      16        0.0%
BITSFR15             0      0       0      16        0.0%
SFR15                0      0       0      16        0.0%
BANK6               50      0       0      17        0.0%
BITSFR16             0      0       0      17        0.0%
SFR16                0      0       0      17        0.0%
BITBANK7            50      0       0      18        0.0%
BITSFR17             0      0       0      18        0.0%
SFR17                0      0       0      18        0.0%
BANK7               50      0       0      19        0.0%
BITSFR18             0      0       0      19        0.0%
SFR18                0      0       0      19        0.0%
BITBANK8            50      0       0      20        0.0%
BITSFR19             0      0       0      20        0.0%
SFR19                0      0       0      20        0.0%
BANK8               50      0       0      21        0.0%
BITSFR20             0      0       0      21        0.0%
SFR20                0      0       0      21        0.0%
BITBANK9            50      0       0      22        0.0%
BITSFR21             0      0       0      22        0.0%
SFR21                0      0       0      22        0.0%
BANK9               50      0       0      23        0.0%
BITSFR22             0      0       0      23        0.0%
SFR22                0      0       0      23        0.0%
BITBANK10           50      0       0      24        0.0%
BITSFR23             0      0       0      24        0.0%
SFR23                0      0       0      24        0.0%
BANK10              50      0       0      25        0.0%
BITSFR24             0      0       0      25        0.0%
SFR24                0      0       0      25        0.0%
BITBANK11           50      0       0      26        0.0%
BITSFR25             0      0       0      26        0.0%
SFR25                0      0       0      26        0.0%
BANK11              50      0       0      27        0.0%
BITSFR26             0      0       0      27        0.0%
SFR26                0      0       0      27        0.0%
BITSFR27             0      0       0      28        0.0%
SFR27                0      0       0      28        0.0%
ABS                  0      0       0      28        0.0%
BITBANK12           50      0       0      29        0.0%
BITSFR28             0      0       0      29        0.0%
SFR28                0      0       0      29        0.0%
BANK12              50      0       0      30        0.0%
BITSFR29             0      0       0      30        0.0%
SFR29                0      0       0      30        0.0%
BITBANK13           50      0       0      31        0.0%
BITSFR30             0      0       0      31        0.0%
SFR30                0      0       0      31        0.0%
BANK13              50      0       0      32        0.0%
BITSFR31             0      0       0      32        0.0%
SFR31                0      0       0      32        0.0%
BITBANK14           50      0       0      33        0.0%
BITSFR32             0      0       0      33        0.0%
SFR32                0      0       0      33        0.0%
BANK14              50      0       0      34        0.0%
BITSFR33             0      0       0      34        0.0%
SFR33                0      0       0      34        0.0%
BITBANK15           50      0       0      35        0.0%
BITSFR34             0      0       0      35        0.0%
SFR34                0      0       0      35        0.0%
BANK15              50      0       0      36        0.0%
BITSFR35             0      0       0      36        0.0%
SFR35                0      0       0      36        0.0%
BITBANK16           50      0       0      37        0.0%
BITSFR36             0      0       0      37        0.0%
SFR36                0      0       0      37        0.0%
BANK16              50      0       0      38        0.0%
BITSFR37             0      0       0      38        0.0%
SFR37                0      0       0      38        0.0%
BITBANK17           50      0       0      39        0.0%
BITSFR38             0      0       0      39        0.0%
SFR38                0      0       0      39        0.0%
BANK17              50      0       0      40        0.0%
BITSFR39             0      0       0      40        0.0%
SFR39                0      0       0      40        0.0%
BITBANK18           50      0       0      41        0.0%
BITSFR40             0      0       0      41        0.0%
SFR40                0      0       0      41        0.0%
BANK18              50      0       0      42        0.0%
BITSFR41             0      0       0      42        0.0%
SFR41                0      0       0      42        0.0%
BITBANK19           50      0       0      43        0.0%
BITSFR42             0      0       0      43        0.0%
SFR42                0      0       0      43        0.0%
BANK19              50      0       0      44        0.0%
BITSFR43             0      0       0      44        0.0%
SFR43                0      0       0      44        0.0%
BITBANK20           50      0       0      45        0.0%
BITSFR44             0      0       0      45        0.0%
SFR44                0      0       0      45        0.0%
BANK20              50      0       0      46        0.0%
BITSFR45             0      0       0      46        0.0%
SFR45                0      0       0      46        0.0%
BITBANK21           50      0       0      47        0.0%
BITSFR46             0      0       0      47        0.0%
SFR46                0      0       0      47        0.0%
BANK21              50      0       0      48        0.0%
BITSFR47             0      0       0      48        0.0%
SFR47                0      0       0      48        0.0%
BITBANK22           50      0       0      49        0.0%
BITSFR48             0      0       0      49        0.0%
SFR48                0      0       0      49        0.0%
BANK22              50      0       0      50        0.0%
BITSFR49             0      0       0      50        0.0%
SFR49                0      0       0      50        0.0%
BITBANK23           50      0       0      51        0.0%
BITSFR50             0      0       0      51        0.0%
SFR50                0      0       0      51        0.0%
BANK23              50      0       0      52        0.0%
BITSFR51             0      0       0      52        0.0%
SFR51                0      0       0      52        0.0%
BITBANK24           50      0       0      53        0.0%
BITSFR52             0      0       0      53        0.0%
SFR52                0      0       0      53        0.0%
BANK24              50      0       0      54        0.0%
BITSFR53             0      0       0      54        0.0%
SFR53                0      0       0      54        0.0%
BITBANK25           50      0       0      55        0.0%
BITSFR54             0      0       0      55        0.0%
SFR54                0      0       0      55        0.0%
BANK25              50      0       0      56        0.0%
BITSFR55             0      0       0      56        0.0%
SFR55                0      0       0      56        0.0%
BITBANK26           50      0       0      57        0.0%
BITSFR56             0      0       0      57        0.0%
SFR56                0      0       0      57        0.0%
BANK26              50      0       0      58        0.0%
BITSFR57             0      0       0      58        0.0%
SFR57                0      0       0      58        0.0%
BITSFR58             0      0       0      59        0.0%
SFR58                0      0       0      59        0.0%
DATA                 0      0       0      59        0.0%
BITBANK27           50      0       0      60        0.0%
BITSFR59             0      0       0      60        0.0%
SFR59                0      0       0      60        0.0%
BANK27              50      0       0      61        0.0%
BITSFR60             0      0       0      61        0.0%
SFR60                0      0       0      61        0.0%
BITBANK28           50      0       0      62        0.0%
BITSFR61             0      0       0      62        0.0%
SFR61                0      0       0      62        0.0%
BANK28              50      0       0      63        0.0%
BITSFR62             0      0       0      63        0.0%
SFR62                0      0       0      63        0.0%
BITBANK29           50      0       0      64        0.0%
BITSFR63             0      0       0      64        0.0%
SFR63                0      0       0      64        0.0%
BANK29              50      0       0      65        0.0%
BITBANK30           50      0       0      66        0.0%
BANK30              50      0       0      67        0.0%
BITBANK31           50      0       0      68        0.0%
BANK31              50      0       0      69        0.0%
BITBANK32           50      0       0      70        0.0%
BANK32              50      0       0      71        0.0%
BITBANK33           50      0       0      72        0.0%
BANK33              50      0       0      73        0.0%
BITBANK34           50      0       0      74        0.0%
BANK34              50      0       0      75        0.0%
BITBANK35           50      0       0      76        0.0%
BANK35              50      0       0      77        0.0%
BITBANK36           50      0       0      78        0.0%
BANK36              50      0       0      79        0.0%
BITBANK37           50      0       0      80        0.0%
BANK37              50      0       0      81        0.0%
BITBANK38           50      0       0      82        0.0%
BANK38              50      0       0      83        0.0%
BITBANK39           50      0       0      84        0.0%
BANK39              50      0       0      85        0.0%
BITBANK40           50      0       0      86        0.0%
BANK40              50      0       0      87        0.0%
BITBANK41           50      0       0      88        0.0%
BANK41              50      0       0      89        0.0%
BITBANK42           50      0       0      90        0.0%
BANK42              50      0       0      91        0.0%
BITBANK43           50      0       0      92        0.0%
BANK43              50      0       0      93        0.0%
BITBANK44           50      0       0      94        0.0%
BANK44              50      0       0      95        0.0%
BITBANK45           50      0       0      96        0.0%
BANK45              50      0       0      97        0.0%
BITBANK46           50      0       0      98        0.0%
BANK46              50      0       0      99        0.0%
BITBANK47           50      0       0     100        0.0%
BANK47              50      0       0     101        0.0%
BITBANK48           50      0       0     102        0.0%
BANK48              50      0       0     103        0.0%
BITBANK49           50      0       0     104        0.0%
BANK49              50      0       0     105        0.0%
BITBANK50           50      0       0     106        0.0%
BANK50              50      0       0     107        0.0%


Microchip Technology PIC Macro Assembler V1.38 build -256452561 
Symbol Table                                                                                   Tue Sep 27 20:12:58 2016

                        __CFG_CP$OFF 0000                                   u97 0021  
                        __CFG_LVP$ON 0000                          __CFG_ZCD$ON 0000  
                                l873 0037                                  l865 001F  
                       __CFG_CPD$OFF 0000                         __CFG_BORV$LO 0000  
               _ADCC_StartConversion 0087                                 _LATA 0016  
                               _LATB 0017                                 _LATC 0018  
                               _WPUA 1F39                                 _WPUB 1F44  
                               _WPUC 1F4F                     __end_of_ADCC_ISR 0097  
                       __CFG_WRT$OFF 0000                        __CFG_FCMEN$ON 0000  
                               _main 001C                                 btemp 007E  
                      __CFG_BOREN$ON 0000                                 ltemp 007E  
                               start 0016                                 ttemp 007E  
                               wtemp 007E                        __CFG_CSWEN$ON 0000  
                      __CFG_MCLRE$ON 0000       __size_of_OSCILLATOR_Initialize 0009  
      __end_of_OSCILLATOR_Initialize 0087                                _ADACQ 009D  
                              _ADCAP 009B                                _ADACT 0099  
                              ?_main 0070                                _ADCLK 0098  
                              _ADCNT 010C                                _ADPCH 009E  
                              _ADREF 009A                                _ADPRE 009C  
                      __CFG_WDTE$OFF 0000                                _ADRPT 010D  
                              _LATA1 00B1                                i1l198 0011  
                              _OSCEN 0891                                _TRISA 0011  
                              _TRISB 0012                                _TRISC 0013  
              ?_ADCC_StartConversion 0070                                ltemp0 007E  
                              ltemp1 0082                                ltemp2 0086  
                              ltemp3 0080                                ttemp0 007E  
                              ttemp1 0081                                ttemp2 0084  
                              ttemp3 0087                                ttemp4 007F  
                              wtemp0 007E                                wtemp1 0080  
                              wtemp2 0082                                wtemp3 0084  
                              wtemp4 0086                                wtemp5 0088  
                              wtemp6 007F                      __initialization 0018  
                       __end_of_main 0044          ?_INTERRUPT_InterruptManager 0070  
                             ??_main 0073                               _ADACCH 0091  
                             _ADACCL 0090                               _ADCON0 0093  
                             _ADCON1 0094                               _ADCON2 0095  
                             _ADCON3 0096                               _ADERRH 0117  
                             _ADERRL 0116                               _ADLTHH 010F  
                             _ADLTHL 010E                               _ADRESH 008D  
                             _ADRESL 008C                               _ADSTAT 0097  
                             _ADUTHH 0111                               _ADUTHL 0110  
                             _ANSELA 1F38                               _ANSELB 1F43  
                             _ANSELC 1F4E                   __CFG_RSTOSC$HFINT1 0000  
                     __CFG_WDTCCS$SC 0000                               _OSCFRQ 0893  
         ??_ADCC_GetConversionResult 0073                       __CFG_PWRTE$OFF 0000  
                     __CFG_STVREN$ON 0000                            ?_ADCC_ISR 0070  
                    _ADCC_Initialize 0044               ??_ADCC_StartConversion 0071  
                  _SYSTEM_Initialize 0075              __end_of__initialization 0018  
                 ?_SYSTEM_Initialize 0070                       __pcstackCOMMON 0070  
                ??_SYSTEM_Initialize 0071                           ??_ADCC_ISR 0070  
        ADCC_StartConversion@channel 0071            __end_of_SYSTEM_Initialize 007E  
                         __pmaintext 001C                      __CFG_PPS1WAY$ON 0000  
            __end_of_ADCC_Initialize 005F                           __pintentry 0004  
                            _ADFLTRH 0115                              _ADFLTRL 0114  
                            _ADPREVH 008F                              _ADPREVL 008E  
                            _ADSTPTH 0113                              _ADSTPTL 0112  
                            _OSCCON1 088D                              _OSCCON3 088F  
                            _OSCSTAT 0890                              _OSCTUNE 0892  
               __CFG_SCANE$available 0000                              __ptext1 0075  
                            __ptext2 005F                              __ptext3 007E  
                            __ptext4 0044                              __ptext5 0087  
                            __ptext6 008E                              __ptext8 0094  
              _OSCILLATOR_Initialize 007E             ??_PIN_MANAGER_Initialize 0071  
         __size_of_SYSTEM_Initialize 0009                 end_of_initialization 0018  
                   ?_ADCC_Initialize 0070                __CFG_WDTCPS$WDTCPS_31 0000  
                  __size_of_ADCC_ISR 0003                     __CFG_FEXTOSC$OFF 0000  
             ?_OSCILLATOR_Initialize 0070    __size_of_ADCC_GetConversionResult 0006  
          ?_ADCC_GetConversionResult 0071                  start_initialization 0018  
    __size_of_PIN_MANAGER_Initialize 0016        __size_of_ADCC_StartConversion 0007  
                   __CFG_LPBOREN$OFF 0000                            ___latbits 0004  
             _PIN_MANAGER_Initialize 005F         ??_INTERRUPT_InterruptManager 0070  
                           _ADCC_ISR 0094                             _PIE1bits 0717  
__size_of_INTERRUPT_InterruptManager 0012                             _PIR1bits 070D  
                         _ADCON0bits 0093                           _ADCON1bits 0094  
                         _ADCON2bits 0095                           _ADCON3bits 0096  
                         _ADSTATbits 0097     __end_of_ADCC_GetConversionResult 0094  
            ??_OSCILLATOR_Initialize 0071             __size_of_ADCC_Initialize 001B  
                      __size_of_main 0028                 __CFG_WDTCWS$WDTCWS_7 0000  
       __end_of_ADCC_StartConversion 008E                             int$flags 007E  
 __end_of_INTERRUPT_InterruptManager 0016           _INTERRUPT_InterruptManager 0004  
                         _INTCONbits 000B                             intlevel1 0000  
            ?_PIN_MANAGER_Initialize 0070                    __CFG_CLKOUTEN$OFF 0000  
           _ADCC_GetConversionResult 008E       __end_of_PIN_MANAGER_Initialize 0075  
                  ??_ADCC_Initialize 0071  
